

Microchip MPLAB XC8 Assembler V2.32 build 20210201212658 
                                                                                               Fri Aug 27 00:15:56 2021

Microchip MPLAB XC8 C Compiler v2.32 (Free license) build 20210201212658 Og1 
     1                           	processor	16F1779
     2                           	pagewidth 120
     3                           	opt	flic
     4                           	psect	cinit,global,class=CODE,merge=1,delta=2
     5                           	psect	cstackCOMMON,global,class=COMMON,space=1,delta=1,noexec
     6                           	psect	maintext,global,class=CODE,merge=1,split=1,delta=2
     7                           	psect	text1,local,class=CODE,merge=1,delta=2
     8                           	psect	text2,local,class=CODE,merge=1,delta=2
     9                           	psect	text3,local,class=CODE,merge=1,delta=2
    10                           	psect	text4,local,class=CODE,merge=1,delta=2
    11                           	psect	config,global,abs,ovrld,class=CONFIG,space=4,delta=2,noexec
    12                           	dabs	1,0x7E,2
    13  0000                     
    14                           ; Version 2.20
    15                           ; Generated 12/02/2020 GMT
    16                           ; 
    17                           ; Copyright © 2020, Microchip Technology Inc. and its subsidiaries ("Microchip")
    18                           ; All rights reserved.
    19                           ; 
    20                           ; This software is developed by Microchip Technology Inc. and its subsidiaries ("Microch
      +                          ip").
    21                           ; 
    22                           ; Redistribution and use in source and binary forms, with or without modification, are
    23                           ; permitted provided that the following conditions are met:
    24                           ; 
    25                           ;     1. Redistributions of source code must retain the above copyright notice, this lis
      +                          t of
    26                           ;        conditions and the following disclaimer.
    27                           ; 
    28                           ;     2. Redistributions in binary form must reproduce the above copyright notice, this 
      +                          list
    29                           ;        of conditions and the following disclaimer in the documentation and/or other
    30                           ;        materials provided with the distribution.
    31                           ; 
    32                           ;     3. Microchip's name may not be used to endorse or promote products derived from th
      +                          is
    33                           ;        software without specific prior written permission.
    34                           ; 
    35                           ; THIS SOFTWARE IS PROVIDED BY MICROCHIP "AS IS" AND ANY EXPRESS OR IMPLIED WARRANTIES,
    36                           ; INCLUDING, BUT NOT LIMITED TO, THE IMPLIED WARRANTIES OF MERCHANTABILITY AND FITNESS F
      +                          OR
    37                           ; PURPOSE ARE DISCLAIMED.  IN NO EVENT SHALL MICROCHIP BE LIABLE FOR ANY DIRECT, INDIREC
      +                          T,
    38                           ; INCIDENTAL, SPECIAL, EXEMPLARY, OR CONSEQUENTIAL DAMAGES (INCLUDING BUT NOT LIMITED TO
    39                           ; PROCUREMENT OF SUBSTITUTE GOODS OR SERVICES; LOSS OF USE, DATA OR PROFITS; OR BUSINESS
    40                           ; INTERRUPTION) HOWSOEVER CAUSED AND ON ANY THEORY OF LIABILITY, WHETHER IN CONTRACT, ST
      +                          RICT
    41                           ; LIABILITY, OR TORT (INCLUDING NEGLIGENCE OR OTHERWISE) ARISING IN ANY WAY OUT OF THE U
      +                          SE OF
    42                           ; THIS SOFTWARE, EVEN IF ADVISED OF THE POSSIBILITY OF SUCH DAMAGE.
    43                           ; 
    44                           ; 
    45                           ; Code-generator required, PIC16F1779 Definitions
    46                           ; 
    47                           ; SFR Addresses
    48  0000                     	;# 
    49  0001                     	;# 
    50  0002                     	;# 
    51  0003                     	;# 
    52  0004                     	;# 
    53  0005                     	;# 
    54  0006                     	;# 
    55  0007                     	;# 
    56  0008                     	;# 
    57  0009                     	;# 
    58  000A                     	;# 
    59  000B                     	;# 
    60  000C                     	;# 
    61  000D                     	;# 
    62  000E                     	;# 
    63  000F                     	;# 
    64  0010                     	;# 
    65  0011                     	;# 
    66  0012                     	;# 
    67  0013                     	;# 
    68  0014                     	;# 
    69  0015                     	;# 
    70  0016                     	;# 
    71  0017                     	;# 
    72  0018                     	;# 
    73  0018                     	;# 
    74  0019                     	;# 
    75  001A                     	;# 
    76  001B                     	;# 
    77  001C                     	;# 
    78  001C                     	;# 
    79  001D                     	;# 
    80  001E                     	;# 
    81  001F                     	;# 
    82  008C                     	;# 
    83  008D                     	;# 
    84  008E                     	;# 
    85  008F                     	;# 
    86  0090                     	;# 
    87  0091                     	;# 
    88  0092                     	;# 
    89  0093                     	;# 
    90  0094                     	;# 
    91  0095                     	;# 
    92  0096                     	;# 
    93  0097                     	;# 
    94  0098                     	;# 
    95  0099                     	;# 
    96  009A                     	;# 
    97  009B                     	;# 
    98  009C                     	;# 
    99  009D                     	;# 
   100  009E                     	;# 
   101  009F                     	;# 
   102  010C                     	;# 
   103  010D                     	;# 
   104  010E                     	;# 
   105  010F                     	;# 
   106  0110                     	;# 
   107  0111                     	;# 
   108  0112                     	;# 
   109  0113                     	;# 
   110  0114                     	;# 
   111  0115                     	;# 
   112  0116                     	;# 
   113  0117                     	;# 
   114  0118                     	;# 
   115  0119                     	;# 
   116  011A                     	;# 
   117  011B                     	;# 
   118  011C                     	;# 
   119  011D                     	;# 
   120  018C                     	;# 
   121  018D                     	;# 
   122  018E                     	;# 
   123  018F                     	;# 
   124  0190                     	;# 
   125  0191                     	;# 
   126  0191                     	;# 
   127  0192                     	;# 
   128  0193                     	;# 
   129  0193                     	;# 
   130  0194                     	;# 
   131  0195                     	;# 
   132  0196                     	;# 
   133  0197                     	;# 
   134  0199                     	;# 
   135  0199                     	;# 
   136  0199                     	;# 
   137  019A                     	;# 
   138  019A                     	;# 
   139  019A                     	;# 
   140  019B                     	;# 
   141  019B                     	;# 
   142  019B                     	;# 
   143  019B                     	;# 
   144  019B                     	;# 
   145  019C                     	;# 
   146  019C                     	;# 
   147  019C                     	;# 
   148  019D                     	;# 
   149  019D                     	;# 
   150  019D                     	;# 
   151  019E                     	;# 
   152  019E                     	;# 
   153  019E                     	;# 
   154  019F                     	;# 
   155  019F                     	;# 
   156  019F                     	;# 
   157  019F                     	;# 
   158  019F                     	;# 
   159  020C                     	;# 
   160  020D                     	;# 
   161  020E                     	;# 
   162  020F                     	;# 
   163  0210                     	;# 
   164  0211                     	;# 
   165  0211                     	;# 
   166  0212                     	;# 
   167  0212                     	;# 
   168  0213                     	;# 
   169  0213                     	;# 
   170  0214                     	;# 
   171  0214                     	;# 
   172  0215                     	;# 
   173  0215                     	;# 
   174  0215                     	;# 
   175  0215                     	;# 
   176  0216                     	;# 
   177  0216                     	;# 
   178  0217                     	;# 
   179  0217                     	;# 
   180  021B                     	;# 
   181  021C                     	;# 
   182  021D                     	;# 
   183  021E                     	;# 
   184  021F                     	;# 
   185  028C                     	;# 
   186  028D                     	;# 
   187  028E                     	;# 
   188  028F                     	;# 
   189  0290                     	;# 
   190  0291                     	;# 
   191  0291                     	;# 
   192  0292                     	;# 
   193  0293                     	;# 
   194  0294                     	;# 
   195  0295                     	;# 
   196  0295                     	;# 
   197  0296                     	;# 
   198  0297                     	;# 
   199  0298                     	;# 
   200  0299                     	;# 
   201  0299                     	;# 
   202  029A                     	;# 
   203  029B                     	;# 
   204  029C                     	;# 
   205  029E                     	;# 
   206  029F                     	;# 
   207  030C                     	;# 
   208  030D                     	;# 
   209  030E                     	;# 
   210  030F                     	;# 
   211  0310                     	;# 
   212  0311                     	;# 
   213  0311                     	;# 
   214  0312                     	;# 
   215  0313                     	;# 
   216  0314                     	;# 
   217  0315                     	;# 
   218  0316                     	;# 
   219  0317                     	;# 
   220  0318                     	;# 
   221  0319                     	;# 
   222  031B                     	;# 
   223  031C                     	;# 
   224  031D                     	;# 
   225  031E                     	;# 
   226  031F                     	;# 
   227  038C                     	;# 
   228  038D                     	;# 
   229  038E                     	;# 
   230  038F                     	;# 
   231  0390                     	;# 
   232  0391                     	;# 
   233  0392                     	;# 
   234  0393                     	;# 
   235  0394                     	;# 
   236  0395                     	;# 
   237  0396                     	;# 
   238  0397                     	;# 
   239  0398                     	;# 
   240  0399                     	;# 
   241  039D                     	;# 
   242  039E                     	;# 
   243  039F                     	;# 
   244  040D                     	;# 
   245  040F                     	;# 
   246  040F                     	;# 
   247  0410                     	;# 
   248  0411                     	;# 
   249  0412                     	;# 
   250  0413                     	;# 
   251  0413                     	;# 
   252  0414                     	;# 
   253  0414                     	;# 
   254  0415                     	;# 
   255  0416                     	;# 
   256  0417                     	;# 
   257  0418                     	;# 
   258  041A                     	;# 
   259  041A                     	;# 
   260  041B                     	;# 
   261  041B                     	;# 
   262  041C                     	;# 
   263  041D                     	;# 
   264  041E                     	;# 
   265  041F                     	;# 
   266  048E                     	;# 
   267  048E                     	;# 
   268  048F                     	;# 
   269  0490                     	;# 
   270  0491                     	;# 
   271  0492                     	;# 
   272  0493                     	;# 
   273  0493                     	;# 
   274  0494                     	;# 
   275  0494                     	;# 
   276  0495                     	;# 
   277  0496                     	;# 
   278  0497                     	;# 
   279  0498                     	;# 
   280  049A                     	;# 
   281  049A                     	;# 
   282  049B                     	;# 
   283  049B                     	;# 
   284  049C                     	;# 
   285  049D                     	;# 
   286  049E                     	;# 
   287  049F                     	;# 
   288  050F                     	;# 
   289  0510                     	;# 
   290  0511                     	;# 
   291  0512                     	;# 
   292  0513                     	;# 
   293  0514                     	;# 
   294  0515                     	;# 
   295  0516                     	;# 
   296  0517                     	;# 
   297  0518                     	;# 
   298  0519                     	;# 
   299  051A                     	;# 
   300  051B                     	;# 
   301  051C                     	;# 
   302  051D                     	;# 
   303  051E                     	;# 
   304  058D                     	;# 
   305  058E                     	;# 
   306  058F                     	;# 
   307  058F                     	;# 
   308  058F                     	;# 
   309  0590                     	;# 
   310  0590                     	;# 
   311  0591                     	;# 
   312  0592                     	;# 
   313  0592                     	;# 
   314  0592                     	;# 
   315  0593                     	;# 
   316  0593                     	;# 
   317  0594                     	;# 
   318  0595                     	;# 
   319  0595                     	;# 
   320  0596                     	;# 
   321  0597                     	;# 
   322  0597                     	;# 
   323  0598                     	;# 
   324  0599                     	;# 
   325  0599                     	;# 
   326  0599                     	;# 
   327  059A                     	;# 
   328  059A                     	;# 
   329  059B                     	;# 
   330  059C                     	;# 
   331  059C                     	;# 
   332  059C                     	;# 
   333  059D                     	;# 
   334  059D                     	;# 
   335  059E                     	;# 
   336  059F                     	;# 
   337  059F                     	;# 
   338  060C                     	;# 
   339  060D                     	;# 
   340  060D                     	;# 
   341  060E                     	;# 
   342  060F                     	;# 
   343  0610                     	;# 
   344  0611                     	;# 
   345  0612                     	;# 
   346  0613                     	;# 
   347  0614                     	;# 
   348  0614                     	;# 
   349  0615                     	;# 
   350  0616                     	;# 
   351  0617                     	;# 
   352  0617                     	;# 
   353  0618                     	;# 
   354  0619                     	;# 
   355  061A                     	;# 
   356  061A                     	;# 
   357  061B                     	;# 
   358  061C                     	;# 
   359  061D                     	;# 
   360  061D                     	;# 
   361  061E                     	;# 
   362  061F                     	;# 
   363  068D                     	;# 
   364  068E                     	;# 
   365  068F                     	;# 
   366  0690                     	;# 
   367  0691                     	;# 
   368  0692                     	;# 
   369  0693                     	;# 
   370  0694                     	;# 
   371  0695                     	;# 
   372  0696                     	;# 
   373  0697                     	;# 
   374  0698                     	;# 
   375  0699                     	;# 
   376  069A                     	;# 
   377  069B                     	;# 
   378  069C                     	;# 
   379  069D                     	;# 
   380  069E                     	;# 
   381  069F                     	;# 
   382  070D                     	;# 
   383  070E                     	;# 
   384  070F                     	;# 
   385  0710                     	;# 
   386  0711                     	;# 
   387  0712                     	;# 
   388  0713                     	;# 
   389  0714                     	;# 
   390  0715                     	;# 
   391  0716                     	;# 
   392  0717                     	;# 
   393  0718                     	;# 
   394  0719                     	;# 
   395  071A                     	;# 
   396  071B                     	;# 
   397  071C                     	;# 
   398  071D                     	;# 
   399  071E                     	;# 
   400  071F                     	;# 
   401  078E                     	;# 
   402  078F                     	;# 
   403  0790                     	;# 
   404  0791                     	;# 
   405  0792                     	;# 
   406  0793                     	;# 
   407  0794                     	;# 
   408  0795                     	;# 
   409  0796                     	;# 
   410  0797                     	;# 
   411  0798                     	;# 
   412  0799                     	;# 
   413  079A                     	;# 
   414  079B                     	;# 
   415  079C                     	;# 
   416  079D                     	;# 
   417  079E                     	;# 
   418  079F                     	;# 
   419  080D                     	;# 
   420  080E                     	;# 
   421  080F                     	;# 
   422  0810                     	;# 
   423  0811                     	;# 
   424  0812                     	;# 
   425  0813                     	;# 
   426  0814                     	;# 
   427  0815                     	;# 
   428  0816                     	;# 
   429  0817                     	;# 
   430  0818                     	;# 
   431  0819                     	;# 
   432  081A                     	;# 
   433  081B                     	;# 
   434  081C                     	;# 
   435  081D                     	;# 
   436  081E                     	;# 
   437  081F                     	;# 
   438  088D                     	;# 
   439  088E                     	;# 
   440  088F                     	;# 
   441  0890                     	;# 
   442  0891                     	;# 
   443  0892                     	;# 
   444  0893                     	;# 
   445  0894                     	;# 
   446  0895                     	;# 
   447  0896                     	;# 
   448  0897                     	;# 
   449  0898                     	;# 
   450  0899                     	;# 
   451  089A                     	;# 
   452  089B                     	;# 
   453  089C                     	;# 
   454  089D                     	;# 
   455  089E                     	;# 
   456  089F                     	;# 
   457  090C                     	;# 
   458  090D                     	;# 
   459  090E                     	;# 
   460  090F                     	;# 
   461  0910                     	;# 
   462  0911                     	;# 
   463  0912                     	;# 
   464  0913                     	;# 
   465  0914                     	;# 
   466  0915                     	;# 
   467  0916                     	;# 
   468  0917                     	;# 
   469  0918                     	;# 
   470  0919                     	;# 
   471  091A                     	;# 
   472  091B                     	;# 
   473  091C                     	;# 
   474  091D                     	;# 
   475  091E                     	;# 
   476  091F                     	;# 
   477  0D1B                     	;# 
   478  0D1C                     	;# 
   479  0D1D                     	;# 
   480  0D1E                     	;# 
   481  0D1F                     	;# 
   482  0D8E                     	;# 
   483  0D8F                     	;# 
   484  0D90                     	;# 
   485  0D91                     	;# 
   486  0D91                     	;# 
   487  0D92                     	;# 
   488  0D93                     	;# 
   489  0D93                     	;# 
   490  0D94                     	;# 
   491  0D95                     	;# 
   492  0D95                     	;# 
   493  0D96                     	;# 
   494  0D97                     	;# 
   495  0D97                     	;# 
   496  0D98                     	;# 
   497  0D99                     	;# 
   498  0D99                     	;# 
   499  0D9A                     	;# 
   500  0D9B                     	;# 
   501  0D9C                     	;# 
   502  0D9C                     	;# 
   503  0D9D                     	;# 
   504  0D9D                     	;# 
   505  0D9E                     	;# 
   506  0D9F                     	;# 
   507  0DA0                     	;# 
   508  0DA1                     	;# 
   509  0DA1                     	;# 
   510  0DA2                     	;# 
   511  0DA3                     	;# 
   512  0DA3                     	;# 
   513  0DA4                     	;# 
   514  0DA5                     	;# 
   515  0DA5                     	;# 
   516  0DA6                     	;# 
   517  0DA7                     	;# 
   518  0DA7                     	;# 
   519  0DA8                     	;# 
   520  0DA9                     	;# 
   521  0DA9                     	;# 
   522  0DAA                     	;# 
   523  0DAB                     	;# 
   524  0DAC                     	;# 
   525  0DAC                     	;# 
   526  0DAD                     	;# 
   527  0DAD                     	;# 
   528  0DAE                     	;# 
   529  0DAF                     	;# 
   530  0DB0                     	;# 
   531  0DB1                     	;# 
   532  0DB1                     	;# 
   533  0DB2                     	;# 
   534  0DB3                     	;# 
   535  0DB3                     	;# 
   536  0DB4                     	;# 
   537  0DB5                     	;# 
   538  0DB5                     	;# 
   539  0DB6                     	;# 
   540  0DB7                     	;# 
   541  0DB7                     	;# 
   542  0DB8                     	;# 
   543  0DB9                     	;# 
   544  0DB9                     	;# 
   545  0DBA                     	;# 
   546  0DBB                     	;# 
   547  0DBC                     	;# 
   548  0DBC                     	;# 
   549  0DBD                     	;# 
   550  0DBD                     	;# 
   551  0DBE                     	;# 
   552  0DBF                     	;# 
   553  0DC0                     	;# 
   554  0DC1                     	;# 
   555  0DC1                     	;# 
   556  0DC2                     	;# 
   557  0DC3                     	;# 
   558  0DC3                     	;# 
   559  0DC4                     	;# 
   560  0DC5                     	;# 
   561  0DC5                     	;# 
   562  0DC6                     	;# 
   563  0DC7                     	;# 
   564  0DC7                     	;# 
   565  0DC8                     	;# 
   566  0DC9                     	;# 
   567  0DC9                     	;# 
   568  0DCA                     	;# 
   569  0DCB                     	;# 
   570  0DCC                     	;# 
   571  0DCC                     	;# 
   572  0DCD                     	;# 
   573  0DCD                     	;# 
   574  0DCE                     	;# 
   575  0DCF                     	;# 
   576  0DD0                     	;# 
   577  0E0C                     	;# 
   578  0E0D                     	;# 
   579  0E0E                     	;# 
   580  0E0F                     	;# 
   581  0E10                     	;# 
   582  0E11                     	;# 
   583  0E12                     	;# 
   584  0E13                     	;# 
   585  0E14                     	;# 
   586  0E15                     	;# 
   587  0E15                     	;# 
   588  0E15                     	;# 
   589  0E16                     	;# 
   590  0E16                     	;# 
   591  0E16                     	;# 
   592  0E17                     	;# 
   593  0E17                     	;# 
   594  0E17                     	;# 
   595  0E18                     	;# 
   596  0E18                     	;# 
   597  0E18                     	;# 
   598  0E19                     	;# 
   599  0E1A                     	;# 
   600  0E1B                     	;# 
   601  0E1C                     	;# 
   602  0E1D                     	;# 
   603  0E1E                     	;# 
   604  0E1F                     	;# 
   605  0E20                     	;# 
   606  0E21                     	;# 
   607  0E22                     	;# 
   608  0E23                     	;# 
   609  0E24                     	;# 
   610  0E25                     	;# 
   611  0E26                     	;# 
   612  0E27                     	;# 
   613  0E28                     	;# 
   614  0E29                     	;# 
   615  0E2A                     	;# 
   616  0E2B                     	;# 
   617  0E2C                     	;# 
   618  0E2D                     	;# 
   619  0E2E                     	;# 
   620  0E2F                     	;# 
   621  0E30                     	;# 
   622  0E31                     	;# 
   623  0E32                     	;# 
   624  0E33                     	;# 
   625  0E34                     	;# 
   626  0E35                     	;# 
   627  0E36                     	;# 
   628  0E37                     	;# 
   629  0E38                     	;# 
   630  0E39                     	;# 
   631  0E3A                     	;# 
   632  0E3B                     	;# 
   633  0E3C                     	;# 
   634  0E3D                     	;# 
   635  0E3E                     	;# 
   636  0E90                     	;# 
   637  0E91                     	;# 
   638  0E92                     	;# 
   639  0E93                     	;# 
   640  0E94                     	;# 
   641  0E95                     	;# 
   642  0E96                     	;# 
   643  0E97                     	;# 
   644  0E98                     	;# 
   645  0E99                     	;# 
   646  0E9A                     	;# 
   647  0E9B                     	;# 
   648  0E9C                     	;# 
   649  0E9D                     	;# 
   650  0E9E                     	;# 
   651  0E9F                     	;# 
   652  0EA0                     	;# 
   653  0EA1                     	;# 
   654  0EA2                     	;# 
   655  0EA3                     	;# 
   656  0EA4                     	;# 
   657  0EA5                     	;# 
   658  0EA6                     	;# 
   659  0EA7                     	;# 
   660  0EA8                     	;# 
   661  0EA9                     	;# 
   662  0EAA                     	;# 
   663  0EAB                     	;# 
   664  0EAC                     	;# 
   665  0EAD                     	;# 
   666  0EAE                     	;# 
   667  0EAF                     	;# 
   668  0EB0                     	;# 
   669  0EB1                     	;# 
   670  0EB2                     	;# 
   671  0F0F                     	;# 
   672  0F10                     	;# 
   673  0F11                     	;# 
   674  0F12                     	;# 
   675  0F13                     	;# 
   676  0F14                     	;# 
   677  0F15                     	;# 
   678  0F16                     	;# 
   679  0F17                     	;# 
   680  0F18                     	;# 
   681  0F19                     	;# 
   682  0F1A                     	;# 
   683  0F1B                     	;# 
   684  0F1C                     	;# 
   685  0F1D                     	;# 
   686  0F1E                     	;# 
   687  0F1F                     	;# 
   688  0F20                     	;# 
   689  0F21                     	;# 
   690  0F22                     	;# 
   691  0F23                     	;# 
   692  0F24                     	;# 
   693  0F25                     	;# 
   694  0F26                     	;# 
   695  0F27                     	;# 
   696  0F28                     	;# 
   697  0F29                     	;# 
   698  0F2A                     	;# 
   699  0F2B                     	;# 
   700  0F2C                     	;# 
   701  0F2D                     	;# 
   702  0F2E                     	;# 
   703  0F2F                     	;# 
   704  0F30                     	;# 
   705  0F31                     	;# 
   706  0F32                     	;# 
   707  0F33                     	;# 
   708  0F34                     	;# 
   709  0F35                     	;# 
   710  0F36                     	;# 
   711  0F37                     	;# 
   712  0FE4                     	;# 
   713  0FE5                     	;# 
   714  0FE6                     	;# 
   715  0FE7                     	;# 
   716  0FE8                     	;# 
   717  0FE9                     	;# 
   718  0FEA                     	;# 
   719  0FEB                     	;# 
   720  0FED                     	;# 
   721  0FEE                     	;# 
   722  0FEF                     	;# 
   723  0000                     	;# 
   724  0001                     	;# 
   725  0002                     	;# 
   726  0003                     	;# 
   727  0004                     	;# 
   728  0005                     	;# 
   729  0006                     	;# 
   730  0007                     	;# 
   731  0008                     	;# 
   732  0009                     	;# 
   733  000A                     	;# 
   734  000B                     	;# 
   735  000C                     	;# 
   736  000D                     	;# 
   737  000E                     	;# 
   738  000F                     	;# 
   739  0010                     	;# 
   740  0011                     	;# 
   741  0012                     	;# 
   742  0013                     	;# 
   743  0014                     	;# 
   744  0015                     	;# 
   745  0016                     	;# 
   746  0017                     	;# 
   747  0018                     	;# 
   748  0018                     	;# 
   749  0019                     	;# 
   750  001A                     	;# 
   751  001B                     	;# 
   752  001C                     	;# 
   753  001C                     	;# 
   754  001D                     	;# 
   755  001E                     	;# 
   756  001F                     	;# 
   757  008C                     	;# 
   758  008D                     	;# 
   759  008E                     	;# 
   760  008F                     	;# 
   761  0090                     	;# 
   762  0091                     	;# 
   763  0092                     	;# 
   764  0093                     	;# 
   765  0094                     	;# 
   766  0095                     	;# 
   767  0096                     	;# 
   768  0097                     	;# 
   769  0098                     	;# 
   770  0099                     	;# 
   771  009A                     	;# 
   772  009B                     	;# 
   773  009C                     	;# 
   774  009D                     	;# 
   775  009E                     	;# 
   776  009F                     	;# 
   777  010C                     	;# 
   778  010D                     	;# 
   779  010E                     	;# 
   780  010F                     	;# 
   781  0110                     	;# 
   782  0111                     	;# 
   783  0112                     	;# 
   784  0113                     	;# 
   785  0114                     	;# 
   786  0115                     	;# 
   787  0116                     	;# 
   788  0117                     	;# 
   789  0118                     	;# 
   790  0119                     	;# 
   791  011A                     	;# 
   792  011B                     	;# 
   793  011C                     	;# 
   794  011D                     	;# 
   795  018C                     	;# 
   796  018D                     	;# 
   797  018E                     	;# 
   798  018F                     	;# 
   799  0190                     	;# 
   800  0191                     	;# 
   801  0191                     	;# 
   802  0192                     	;# 
   803  0193                     	;# 
   804  0193                     	;# 
   805  0194                     	;# 
   806  0195                     	;# 
   807  0196                     	;# 
   808  0197                     	;# 
   809  0199                     	;# 
   810  0199                     	;# 
   811  0199                     	;# 
   812  019A                     	;# 
   813  019A                     	;# 
   814  019A                     	;# 
   815  019B                     	;# 
   816  019B                     	;# 
   817  019B                     	;# 
   818  019B                     	;# 
   819  019B                     	;# 
   820  019C                     	;# 
   821  019C                     	;# 
   822  019C                     	;# 
   823  019D                     	;# 
   824  019D                     	;# 
   825  019D                     	;# 
   826  019E                     	;# 
   827  019E                     	;# 
   828  019E                     	;# 
   829  019F                     	;# 
   830  019F                     	;# 
   831  019F                     	;# 
   832  019F                     	;# 
   833  019F                     	;# 
   834  020C                     	;# 
   835  020D                     	;# 
   836  020E                     	;# 
   837  020F                     	;# 
   838  0210                     	;# 
   839  0211                     	;# 
   840  0211                     	;# 
   841  0212                     	;# 
   842  0212                     	;# 
   843  0213                     	;# 
   844  0213                     	;# 
   845  0214                     	;# 
   846  0214                     	;# 
   847  0215                     	;# 
   848  0215                     	;# 
   849  0215                     	;# 
   850  0215                     	;# 
   851  0216                     	;# 
   852  0216                     	;# 
   853  0217                     	;# 
   854  0217                     	;# 
   855  021B                     	;# 
   856  021C                     	;# 
   857  021D                     	;# 
   858  021E                     	;# 
   859  021F                     	;# 
   860  028C                     	;# 
   861  028D                     	;# 
   862  028E                     	;# 
   863  028F                     	;# 
   864  0290                     	;# 
   865  0291                     	;# 
   866  0291                     	;# 
   867  0292                     	;# 
   868  0293                     	;# 
   869  0294                     	;# 
   870  0295                     	;# 
   871  0295                     	;# 
   872  0296                     	;# 
   873  0297                     	;# 
   874  0298                     	;# 
   875  0299                     	;# 
   876  0299                     	;# 
   877  029A                     	;# 
   878  029B                     	;# 
   879  029C                     	;# 
   880  029E                     	;# 
   881  029F                     	;# 
   882  030C                     	;# 
   883  030D                     	;# 
   884  030E                     	;# 
   885  030F                     	;# 
   886  0310                     	;# 
   887  0311                     	;# 
   888  0311                     	;# 
   889  0312                     	;# 
   890  0313                     	;# 
   891  0314                     	;# 
   892  0315                     	;# 
   893  0316                     	;# 
   894  0317                     	;# 
   895  0318                     	;# 
   896  0319                     	;# 
   897  031B                     	;# 
   898  031C                     	;# 
   899  031D                     	;# 
   900  031E                     	;# 
   901  031F                     	;# 
   902  038C                     	;# 
   903  038D                     	;# 
   904  038E                     	;# 
   905  038F                     	;# 
   906  0390                     	;# 
   907  0391                     	;# 
   908  0392                     	;# 
   909  0393                     	;# 
   910  0394                     	;# 
   911  0395                     	;# 
   912  0396                     	;# 
   913  0397                     	;# 
   914  0398                     	;# 
   915  0399                     	;# 
   916  039D                     	;# 
   917  039E                     	;# 
   918  039F                     	;# 
   919  040D                     	;# 
   920  040F                     	;# 
   921  040F                     	;# 
   922  0410                     	;# 
   923  0411                     	;# 
   924  0412                     	;# 
   925  0413                     	;# 
   926  0413                     	;# 
   927  0414                     	;# 
   928  0414                     	;# 
   929  0415                     	;# 
   930  0416                     	;# 
   931  0417                     	;# 
   932  0418                     	;# 
   933  041A                     	;# 
   934  041A                     	;# 
   935  041B                     	;# 
   936  041B                     	;# 
   937  041C                     	;# 
   938  041D                     	;# 
   939  041E                     	;# 
   940  041F                     	;# 
   941  048E                     	;# 
   942  048E                     	;# 
   943  048F                     	;# 
   944  0490                     	;# 
   945  0491                     	;# 
   946  0492                     	;# 
   947  0493                     	;# 
   948  0493                     	;# 
   949  0494                     	;# 
   950  0494                     	;# 
   951  0495                     	;# 
   952  0496                     	;# 
   953  0497                     	;# 
   954  0498                     	;# 
   955  049A                     	;# 
   956  049A                     	;# 
   957  049B                     	;# 
   958  049B                     	;# 
   959  049C                     	;# 
   960  049D                     	;# 
   961  049E                     	;# 
   962  049F                     	;# 
   963  050F                     	;# 
   964  0510                     	;# 
   965  0511                     	;# 
   966  0512                     	;# 
   967  0513                     	;# 
   968  0514                     	;# 
   969  0515                     	;# 
   970  0516                     	;# 
   971  0517                     	;# 
   972  0518                     	;# 
   973  0519                     	;# 
   974  051A                     	;# 
   975  051B                     	;# 
   976  051C                     	;# 
   977  051D                     	;# 
   978  051E                     	;# 
   979  058D                     	;# 
   980  058E                     	;# 
   981  058F                     	;# 
   982  058F                     	;# 
   983  058F                     	;# 
   984  0590                     	;# 
   985  0590                     	;# 
   986  0591                     	;# 
   987  0592                     	;# 
   988  0592                     	;# 
   989  0592                     	;# 
   990  0593                     	;# 
   991  0593                     	;# 
   992  0594                     	;# 
   993  0595                     	;# 
   994  0595                     	;# 
   995  0596                     	;# 
   996  0597                     	;# 
   997  0597                     	;# 
   998  0598                     	;# 
   999  0599                     	;# 
  1000  0599                     	;# 
  1001  0599                     	;# 
  1002  059A                     	;# 
  1003  059A                     	;# 
  1004  059B                     	;# 
  1005  059C                     	;# 
  1006  059C                     	;# 
  1007  059C                     	;# 
  1008  059D                     	;# 
  1009  059D                     	;# 
  1010  059E                     	;# 
  1011  059F                     	;# 
  1012  059F                     	;# 
  1013  060C                     	;# 
  1014  060D                     	;# 
  1015  060D                     	;# 
  1016  060E                     	;# 
  1017  060F                     	;# 
  1018  0610                     	;# 
  1019  0611                     	;# 
  1020  0612                     	;# 
  1021  0613                     	;# 
  1022  0614                     	;# 
  1023  0614                     	;# 
  1024  0615                     	;# 
  1025  0616                     	;# 
  1026  0617                     	;# 
  1027  0617                     	;# 
  1028  0618                     	;# 
  1029  0619                     	;# 
  1030  061A                     	;# 
  1031  061A                     	;# 
  1032  061B                     	;# 
  1033  061C                     	;# 
  1034  061D                     	;# 
  1035  061D                     	;# 
  1036  061E                     	;# 
  1037  061F                     	;# 
  1038  068D                     	;# 
  1039  068E                     	;# 
  1040  068F                     	;# 
  1041  0690                     	;# 
  1042  0691                     	;# 
  1043  0692                     	;# 
  1044  0693                     	;# 
  1045  0694                     	;# 
  1046  0695                     	;# 
  1047  0696                     	;# 
  1048  0697                     	;# 
  1049  0698                     	;# 
  1050  0699                     	;# 
  1051  069A                     	;# 
  1052  069B                     	;# 
  1053  069C                     	;# 
  1054  069D                     	;# 
  1055  069E                     	;# 
  1056  069F                     	;# 
  1057  070D                     	;# 
  1058  070E                     	;# 
  1059  070F                     	;# 
  1060  0710                     	;# 
  1061  0711                     	;# 
  1062  0712                     	;# 
  1063  0713                     	;# 
  1064  0714                     	;# 
  1065  0715                     	;# 
  1066  0716                     	;# 
  1067  0717                     	;# 
  1068  0718                     	;# 
  1069  0719                     	;# 
  1070  071A                     	;# 
  1071  071B                     	;# 
  1072  071C                     	;# 
  1073  071D                     	;# 
  1074  071E                     	;# 
  1075  071F                     	;# 
  1076  078E                     	;# 
  1077  078F                     	;# 
  1078  0790                     	;# 
  1079  0791                     	;# 
  1080  0792                     	;# 
  1081  0793                     	;# 
  1082  0794                     	;# 
  1083  0795                     	;# 
  1084  0796                     	;# 
  1085  0797                     	;# 
  1086  0798                     	;# 
  1087  0799                     	;# 
  1088  079A                     	;# 
  1089  079B                     	;# 
  1090  079C                     	;# 
  1091  079D                     	;# 
  1092  079E                     	;# 
  1093  079F                     	;# 
  1094  080D                     	;# 
  1095  080E                     	;# 
  1096  080F                     	;# 
  1097  0810                     	;# 
  1098  0811                     	;# 
  1099  0812                     	;# 
  1100  0813                     	;# 
  1101  0814                     	;# 
  1102  0815                     	;# 
  1103  0816                     	;# 
  1104  0817                     	;# 
  1105  0818                     	;# 
  1106  0819                     	;# 
  1107  081A                     	;# 
  1108  081B                     	;# 
  1109  081C                     	;# 
  1110  081D                     	;# 
  1111  081E                     	;# 
  1112  081F                     	;# 
  1113  088D                     	;# 
  1114  088E                     	;# 
  1115  088F                     	;# 
  1116  0890                     	;# 
  1117  0891                     	;# 
  1118  0892                     	;# 
  1119  0893                     	;# 
  1120  0894                     	;# 
  1121  0895                     	;# 
  1122  0896                     	;# 
  1123  0897                     	;# 
  1124  0898                     	;# 
  1125  0899                     	;# 
  1126  089A                     	;# 
  1127  089B                     	;# 
  1128  089C                     	;# 
  1129  089D                     	;# 
  1130  089E                     	;# 
  1131  089F                     	;# 
  1132  090C                     	;# 
  1133  090D                     	;# 
  1134  090E                     	;# 
  1135  090F                     	;# 
  1136  0910                     	;# 
  1137  0911                     	;# 
  1138  0912                     	;# 
  1139  0913                     	;# 
  1140  0914                     	;# 
  1141  0915                     	;# 
  1142  0916                     	;# 
  1143  0917                     	;# 
  1144  0918                     	;# 
  1145  0919                     	;# 
  1146  091A                     	;# 
  1147  091B                     	;# 
  1148  091C                     	;# 
  1149  091D                     	;# 
  1150  091E                     	;# 
  1151  091F                     	;# 
  1152  0D1B                     	;# 
  1153  0D1C                     	;# 
  1154  0D1D                     	;# 
  1155  0D1E                     	;# 
  1156  0D1F                     	;# 
  1157  0D8E                     	;# 
  1158  0D8F                     	;# 
  1159  0D90                     	;# 
  1160  0D91                     	;# 
  1161  0D91                     	;# 
  1162  0D92                     	;# 
  1163  0D93                     	;# 
  1164  0D93                     	;# 
  1165  0D94                     	;# 
  1166  0D95                     	;# 
  1167  0D95                     	;# 
  1168  0D96                     	;# 
  1169  0D97                     	;# 
  1170  0D97                     	;# 
  1171  0D98                     	;# 
  1172  0D99                     	;# 
  1173  0D99                     	;# 
  1174  0D9A                     	;# 
  1175  0D9B                     	;# 
  1176  0D9C                     	;# 
  1177  0D9C                     	;# 
  1178  0D9D                     	;# 
  1179  0D9D                     	;# 
  1180  0D9E                     	;# 
  1181  0D9F                     	;# 
  1182  0DA0                     	;# 
  1183  0DA1                     	;# 
  1184  0DA1                     	;# 
  1185  0DA2                     	;# 
  1186  0DA3                     	;# 
  1187  0DA3                     	;# 
  1188  0DA4                     	;# 
  1189  0DA5                     	;# 
  1190  0DA5                     	;# 
  1191  0DA6                     	;# 
  1192  0DA7                     	;# 
  1193  0DA7                     	;# 
  1194  0DA8                     	;# 
  1195  0DA9                     	;# 
  1196  0DA9                     	;# 
  1197  0DAA                     	;# 
  1198  0DAB                     	;# 
  1199  0DAC                     	;# 
  1200  0DAC                     	;# 
  1201  0DAD                     	;# 
  1202  0DAD                     	;# 
  1203  0DAE                     	;# 
  1204  0DAF                     	;# 
  1205  0DB0                     	;# 
  1206  0DB1                     	;# 
  1207  0DB1                     	;# 
  1208  0DB2                     	;# 
  1209  0DB3                     	;# 
  1210  0DB3                     	;# 
  1211  0DB4                     	;# 
  1212  0DB5                     	;# 
  1213  0DB5                     	;# 
  1214  0DB6                     	;# 
  1215  0DB7                     	;# 
  1216  0DB7                     	;# 
  1217  0DB8                     	;# 
  1218  0DB9                     	;# 
  1219  0DB9                     	;# 
  1220  0DBA                     	;# 
  1221  0DBB                     	;# 
  1222  0DBC                     	;# 
  1223  0DBC                     	;# 
  1224  0DBD                     	;# 
  1225  0DBD                     	;# 
  1226  0DBE                     	;# 
  1227  0DBF                     	;# 
  1228  0DC0                     	;# 
  1229  0DC1                     	;# 
  1230  0DC1                     	;# 
  1231  0DC2                     	;# 
  1232  0DC3                     	;# 
  1233  0DC3                     	;# 
  1234  0DC4                     	;# 
  1235  0DC5                     	;# 
  1236  0DC5                     	;# 
  1237  0DC6                     	;# 
  1238  0DC7                     	;# 
  1239  0DC7                     	;# 
  1240  0DC8                     	;# 
  1241  0DC9                     	;# 
  1242  0DC9                     	;# 
  1243  0DCA                     	;# 
  1244  0DCB                     	;# 
  1245  0DCC                     	;# 
  1246  0DCC                     	;# 
  1247  0DCD                     	;# 
  1248  0DCD                     	;# 
  1249  0DCE                     	;# 
  1250  0DCF                     	;# 
  1251  0DD0                     	;# 
  1252  0E0C                     	;# 
  1253  0E0D                     	;# 
  1254  0E0E                     	;# 
  1255  0E0F                     	;# 
  1256  0E10                     	;# 
  1257  0E11                     	;# 
  1258  0E12                     	;# 
  1259  0E13                     	;# 
  1260  0E14                     	;# 
  1261  0E15                     	;# 
  1262  0E15                     	;# 
  1263  0E15                     	;# 
  1264  0E16                     	;# 
  1265  0E16                     	;# 
  1266  0E16                     	;# 
  1267  0E17                     	;# 
  1268  0E17                     	;# 
  1269  0E17                     	;# 
  1270  0E18                     	;# 
  1271  0E18                     	;# 
  1272  0E18                     	;# 
  1273  0E19                     	;# 
  1274  0E1A                     	;# 
  1275  0E1B                     	;# 
  1276  0E1C                     	;# 
  1277  0E1D                     	;# 
  1278  0E1E                     	;# 
  1279  0E1F                     	;# 
  1280  0E20                     	;# 
  1281  0E21                     	;# 
  1282  0E22                     	;# 
  1283  0E23                     	;# 
  1284  0E24                     	;# 
  1285  0E25                     	;# 
  1286  0E26                     	;# 
  1287  0E27                     	;# 
  1288  0E28                     	;# 
  1289  0E29                     	;# 
  1290  0E2A                     	;# 
  1291  0E2B                     	;# 
  1292  0E2C                     	;# 
  1293  0E2D                     	;# 
  1294  0E2E                     	;# 
  1295  0E2F                     	;# 
  1296  0E30                     	;# 
  1297  0E31                     	;# 
  1298  0E32                     	;# 
  1299  0E33                     	;# 
  1300  0E34                     	;# 
  1301  0E35                     	;# 
  1302  0E36                     	;# 
  1303  0E37                     	;# 
  1304  0E38                     	;# 
  1305  0E39                     	;# 
  1306  0E3A                     	;# 
  1307  0E3B                     	;# 
  1308  0E3C                     	;# 
  1309  0E3D                     	;# 
  1310  0E3E                     	;# 
  1311  0E90                     	;# 
  1312  0E91                     	;# 
  1313  0E92                     	;# 
  1314  0E93                     	;# 
  1315  0E94                     	;# 
  1316  0E95                     	;# 
  1317  0E96                     	;# 
  1318  0E97                     	;# 
  1319  0E98                     	;# 
  1320  0E99                     	;# 
  1321  0E9A                     	;# 
  1322  0E9B                     	;# 
  1323  0E9C                     	;# 
  1324  0E9D                     	;# 
  1325  0E9E                     	;# 
  1326  0E9F                     	;# 
  1327  0EA0                     	;# 
  1328  0EA1                     	;# 
  1329  0EA2                     	;# 
  1330  0EA3                     	;# 
  1331  0EA4                     	;# 
  1332  0EA5                     	;# 
  1333  0EA6                     	;# 
  1334  0EA7                     	;# 
  1335  0EA8                     	;# 
  1336  0EA9                     	;# 
  1337  0EAA                     	;# 
  1338  0EAB                     	;# 
  1339  0EAC                     	;# 
  1340  0EAD                     	;# 
  1341  0EAE                     	;# 
  1342  0EAF                     	;# 
  1343  0EB0                     	;# 
  1344  0EB1                     	;# 
  1345  0EB2                     	;# 
  1346  0F0F                     	;# 
  1347  0F10                     	;# 
  1348  0F11                     	;# 
  1349  0F12                     	;# 
  1350  0F13                     	;# 
  1351  0F14                     	;# 
  1352  0F15                     	;# 
  1353  0F16                     	;# 
  1354  0F17                     	;# 
  1355  0F18                     	;# 
  1356  0F19                     	;# 
  1357  0F1A                     	;# 
  1358  0F1B                     	;# 
  1359  0F1C                     	;# 
  1360  0F1D                     	;# 
  1361  0F1E                     	;# 
  1362  0F1F                     	;# 
  1363  0F20                     	;# 
  1364  0F21                     	;# 
  1365  0F22                     	;# 
  1366  0F23                     	;# 
  1367  0F24                     	;# 
  1368  0F25                     	;# 
  1369  0F26                     	;# 
  1370  0F27                     	;# 
  1371  0F28                     	;# 
  1372  0F29                     	;# 
  1373  0F2A                     	;# 
  1374  0F2B                     	;# 
  1375  0F2C                     	;# 
  1376  0F2D                     	;# 
  1377  0F2E                     	;# 
  1378  0F2F                     	;# 
  1379  0F30                     	;# 
  1380  0F31                     	;# 
  1381  0F32                     	;# 
  1382  0F33                     	;# 
  1383  0F34                     	;# 
  1384  0F35                     	;# 
  1385  0F36                     	;# 
  1386  0F37                     	;# 
  1387  0FE4                     	;# 
  1388  0FE5                     	;# 
  1389  0FE6                     	;# 
  1390  0FE7                     	;# 
  1391  0FE8                     	;# 
  1392  0FE9                     	;# 
  1393  0FEA                     	;# 
  1394  0FEB                     	;# 
  1395  0FED                     	;# 
  1396  0FEE                     	;# 
  1397  0FEF                     	;# 
  1398  0000                     	;# 
  1399  0001                     	;# 
  1400  0002                     	;# 
  1401  0003                     	;# 
  1402  0004                     	;# 
  1403  0005                     	;# 
  1404  0006                     	;# 
  1405  0007                     	;# 
  1406  0008                     	;# 
  1407  0009                     	;# 
  1408  000A                     	;# 
  1409  000B                     	;# 
  1410  000C                     	;# 
  1411  000D                     	;# 
  1412  000E                     	;# 
  1413  000F                     	;# 
  1414  0010                     	;# 
  1415  0011                     	;# 
  1416  0012                     	;# 
  1417  0013                     	;# 
  1418  0014                     	;# 
  1419  0015                     	;# 
  1420  0016                     	;# 
  1421  0017                     	;# 
  1422  0018                     	;# 
  1423  0018                     	;# 
  1424  0019                     	;# 
  1425  001A                     	;# 
  1426  001B                     	;# 
  1427  001C                     	;# 
  1428  001C                     	;# 
  1429  001D                     	;# 
  1430  001E                     	;# 
  1431  001F                     	;# 
  1432  008C                     	;# 
  1433  008D                     	;# 
  1434  008E                     	;# 
  1435  008F                     	;# 
  1436  0090                     	;# 
  1437  0091                     	;# 
  1438  0092                     	;# 
  1439  0093                     	;# 
  1440  0094                     	;# 
  1441  0095                     	;# 
  1442  0096                     	;# 
  1443  0097                     	;# 
  1444  0098                     	;# 
  1445  0099                     	;# 
  1446  009A                     	;# 
  1447  009B                     	;# 
  1448  009C                     	;# 
  1449  009D                     	;# 
  1450  009E                     	;# 
  1451  009F                     	;# 
  1452  010C                     	;# 
  1453  010D                     	;# 
  1454  010E                     	;# 
  1455  010F                     	;# 
  1456  0110                     	;# 
  1457  0111                     	;# 
  1458  0112                     	;# 
  1459  0113                     	;# 
  1460  0114                     	;# 
  1461  0115                     	;# 
  1462  0116                     	;# 
  1463  0117                     	;# 
  1464  0118                     	;# 
  1465  0119                     	;# 
  1466  011A                     	;# 
  1467  011B                     	;# 
  1468  011C                     	;# 
  1469  011D                     	;# 
  1470  018C                     	;# 
  1471  018D                     	;# 
  1472  018E                     	;# 
  1473  018F                     	;# 
  1474  0190                     	;# 
  1475  0191                     	;# 
  1476  0191                     	;# 
  1477  0192                     	;# 
  1478  0193                     	;# 
  1479  0193                     	;# 
  1480  0194                     	;# 
  1481  0195                     	;# 
  1482  0196                     	;# 
  1483  0197                     	;# 
  1484  0199                     	;# 
  1485  0199                     	;# 
  1486  0199                     	;# 
  1487  019A                     	;# 
  1488  019A                     	;# 
  1489  019A                     	;# 
  1490  019B                     	;# 
  1491  019B                     	;# 
  1492  019B                     	;# 
  1493  019B                     	;# 
  1494  019B                     	;# 
  1495  019C                     	;# 
  1496  019C                     	;# 
  1497  019C                     	;# 
  1498  019D                     	;# 
  1499  019D                     	;# 
  1500  019D                     	;# 
  1501  019E                     	;# 
  1502  019E                     	;# 
  1503  019E                     	;# 
  1504  019F                     	;# 
  1505  019F                     	;# 
  1506  019F                     	;# 
  1507  019F                     	;# 
  1508  019F                     	;# 
  1509  020C                     	;# 
  1510  020D                     	;# 
  1511  020E                     	;# 
  1512  020F                     	;# 
  1513  0210                     	;# 
  1514  0211                     	;# 
  1515  0211                     	;# 
  1516  0212                     	;# 
  1517  0212                     	;# 
  1518  0213                     	;# 
  1519  0213                     	;# 
  1520  0214                     	;# 
  1521  0214                     	;# 
  1522  0215                     	;# 
  1523  0215                     	;# 
  1524  0215                     	;# 
  1525  0215                     	;# 
  1526  0216                     	;# 
  1527  0216                     	;# 
  1528  0217                     	;# 
  1529  0217                     	;# 
  1530  021B                     	;# 
  1531  021C                     	;# 
  1532  021D                     	;# 
  1533  021E                     	;# 
  1534  021F                     	;# 
  1535  028C                     	;# 
  1536  028D                     	;# 
  1537  028E                     	;# 
  1538  028F                     	;# 
  1539  0290                     	;# 
  1540  0291                     	;# 
  1541  0291                     	;# 
  1542  0292                     	;# 
  1543  0293                     	;# 
  1544  0294                     	;# 
  1545  0295                     	;# 
  1546  0295                     	;# 
  1547  0296                     	;# 
  1548  0297                     	;# 
  1549  0298                     	;# 
  1550  0299                     	;# 
  1551  0299                     	;# 
  1552  029A                     	;# 
  1553  029B                     	;# 
  1554  029C                     	;# 
  1555  029E                     	;# 
  1556  029F                     	;# 
  1557  030C                     	;# 
  1558  030D                     	;# 
  1559  030E                     	;# 
  1560  030F                     	;# 
  1561  0310                     	;# 
  1562  0311                     	;# 
  1563  0311                     	;# 
  1564  0312                     	;# 
  1565  0313                     	;# 
  1566  0314                     	;# 
  1567  0315                     	;# 
  1568  0316                     	;# 
  1569  0317                     	;# 
  1570  0318                     	;# 
  1571  0319                     	;# 
  1572  031B                     	;# 
  1573  031C                     	;# 
  1574  031D                     	;# 
  1575  031E                     	;# 
  1576  031F                     	;# 
  1577  038C                     	;# 
  1578  038D                     	;# 
  1579  038E                     	;# 
  1580  038F                     	;# 
  1581  0390                     	;# 
  1582  0391                     	;# 
  1583  0392                     	;# 
  1584  0393                     	;# 
  1585  0394                     	;# 
  1586  0395                     	;# 
  1587  0396                     	;# 
  1588  0397                     	;# 
  1589  0398                     	;# 
  1590  0399                     	;# 
  1591  039D                     	;# 
  1592  039E                     	;# 
  1593  039F                     	;# 
  1594  040D                     	;# 
  1595  040F                     	;# 
  1596  040F                     	;# 
  1597  0410                     	;# 
  1598  0411                     	;# 
  1599  0412                     	;# 
  1600  0413                     	;# 
  1601  0413                     	;# 
  1602  0414                     	;# 
  1603  0414                     	;# 
  1604  0415                     	;# 
  1605  0416                     	;# 
  1606  0417                     	;# 
  1607  0418                     	;# 
  1608  041A                     	;# 
  1609  041A                     	;# 
  1610  041B                     	;# 
  1611  041B                     	;# 
  1612  041C                     	;# 
  1613  041D                     	;# 
  1614  041E                     	;# 
  1615  041F                     	;# 
  1616  048E                     	;# 
  1617  048E                     	;# 
  1618  048F                     	;# 
  1619  0490                     	;# 
  1620  0491                     	;# 
  1621  0492                     	;# 
  1622  0493                     	;# 
  1623  0493                     	;# 
  1624  0494                     	;# 
  1625  0494                     	;# 
  1626  0495                     	;# 
  1627  0496                     	;# 
  1628  0497                     	;# 
  1629  0498                     	;# 
  1630  049A                     	;# 
  1631  049A                     	;# 
  1632  049B                     	;# 
  1633  049B                     	;# 
  1634  049C                     	;# 
  1635  049D                     	;# 
  1636  049E                     	;# 
  1637  049F                     	;# 
  1638  050F                     	;# 
  1639  0510                     	;# 
  1640  0511                     	;# 
  1641  0512                     	;# 
  1642  0513                     	;# 
  1643  0514                     	;# 
  1644  0515                     	;# 
  1645  0516                     	;# 
  1646  0517                     	;# 
  1647  0518                     	;# 
  1648  0519                     	;# 
  1649  051A                     	;# 
  1650  051B                     	;# 
  1651  051C                     	;# 
  1652  051D                     	;# 
  1653  051E                     	;# 
  1654  058D                     	;# 
  1655  058E                     	;# 
  1656  058F                     	;# 
  1657  058F                     	;# 
  1658  058F                     	;# 
  1659  0590                     	;# 
  1660  0590                     	;# 
  1661  0591                     	;# 
  1662  0592                     	;# 
  1663  0592                     	;# 
  1664  0592                     	;# 
  1665  0593                     	;# 
  1666  0593                     	;# 
  1667  0594                     	;# 
  1668  0595                     	;# 
  1669  0595                     	;# 
  1670  0596                     	;# 
  1671  0597                     	;# 
  1672  0597                     	;# 
  1673  0598                     	;# 
  1674  0599                     	;# 
  1675  0599                     	;# 
  1676  0599                     	;# 
  1677  059A                     	;# 
  1678  059A                     	;# 
  1679  059B                     	;# 
  1680  059C                     	;# 
  1681  059C                     	;# 
  1682  059C                     	;# 
  1683  059D                     	;# 
  1684  059D                     	;# 
  1685  059E                     	;# 
  1686  059F                     	;# 
  1687  059F                     	;# 
  1688  060C                     	;# 
  1689  060D                     	;# 
  1690  060D                     	;# 
  1691  060E                     	;# 
  1692  060F                     	;# 
  1693  0610                     	;# 
  1694  0611                     	;# 
  1695  0612                     	;# 
  1696  0613                     	;# 
  1697  0614                     	;# 
  1698  0614                     	;# 
  1699  0615                     	;# 
  1700  0616                     	;# 
  1701  0617                     	;# 
  1702  0617                     	;# 
  1703  0618                     	;# 
  1704  0619                     	;# 
  1705  061A                     	;# 
  1706  061A                     	;# 
  1707  061B                     	;# 
  1708  061C                     	;# 
  1709  061D                     	;# 
  1710  061D                     	;# 
  1711  061E                     	;# 
  1712  061F                     	;# 
  1713  068D                     	;# 
  1714  068E                     	;# 
  1715  068F                     	;# 
  1716  0690                     	;# 
  1717  0691                     	;# 
  1718  0692                     	;# 
  1719  0693                     	;# 
  1720  0694                     	;# 
  1721  0695                     	;# 
  1722  0696                     	;# 
  1723  0697                     	;# 
  1724  0698                     	;# 
  1725  0699                     	;# 
  1726  069A                     	;# 
  1727  069B                     	;# 
  1728  069C                     	;# 
  1729  069D                     	;# 
  1730  069E                     	;# 
  1731  069F                     	;# 
  1732  070D                     	;# 
  1733  070E                     	;# 
  1734  070F                     	;# 
  1735  0710                     	;# 
  1736  0711                     	;# 
  1737  0712                     	;# 
  1738  0713                     	;# 
  1739  0714                     	;# 
  1740  0715                     	;# 
  1741  0716                     	;# 
  1742  0717                     	;# 
  1743  0718                     	;# 
  1744  0719                     	;# 
  1745  071A                     	;# 
  1746  071B                     	;# 
  1747  071C                     	;# 
  1748  071D                     	;# 
  1749  071E                     	;# 
  1750  071F                     	;# 
  1751  078E                     	;# 
  1752  078F                     	;# 
  1753  0790                     	;# 
  1754  0791                     	;# 
  1755  0792                     	;# 
  1756  0793                     	;# 
  1757  0794                     	;# 
  1758  0795                     	;# 
  1759  0796                     	;# 
  1760  0797                     	;# 
  1761  0798                     	;# 
  1762  0799                     	;# 
  1763  079A                     	;# 
  1764  079B                     	;# 
  1765  079C                     	;# 
  1766  079D                     	;# 
  1767  079E                     	;# 
  1768  079F                     	;# 
  1769  080D                     	;# 
  1770  080E                     	;# 
  1771  080F                     	;# 
  1772  0810                     	;# 
  1773  0811                     	;# 
  1774  0812                     	;# 
  1775  0813                     	;# 
  1776  0814                     	;# 
  1777  0815                     	;# 
  1778  0816                     	;# 
  1779  0817                     	;# 
  1780  0818                     	;# 
  1781  0819                     	;# 
  1782  081A                     	;# 
  1783  081B                     	;# 
  1784  081C                     	;# 
  1785  081D                     	;# 
  1786  081E                     	;# 
  1787  081F                     	;# 
  1788  088D                     	;# 
  1789  088E                     	;# 
  1790  088F                     	;# 
  1791  0890                     	;# 
  1792  0891                     	;# 
  1793  0892                     	;# 
  1794  0893                     	;# 
  1795  0894                     	;# 
  1796  0895                     	;# 
  1797  0896                     	;# 
  1798  0897                     	;# 
  1799  0898                     	;# 
  1800  0899                     	;# 
  1801  089A                     	;# 
  1802  089B                     	;# 
  1803  089C                     	;# 
  1804  089D                     	;# 
  1805  089E                     	;# 
  1806  089F                     	;# 
  1807  090C                     	;# 
  1808  090D                     	;# 
  1809  090E                     	;# 
  1810  090F                     	;# 
  1811  0910                     	;# 
  1812  0911                     	;# 
  1813  0912                     	;# 
  1814  0913                     	;# 
  1815  0914                     	;# 
  1816  0915                     	;# 
  1817  0916                     	;# 
  1818  0917                     	;# 
  1819  0918                     	;# 
  1820  0919                     	;# 
  1821  091A                     	;# 
  1822  091B                     	;# 
  1823  091C                     	;# 
  1824  091D                     	;# 
  1825  091E                     	;# 
  1826  091F                     	;# 
  1827  0D1B                     	;# 
  1828  0D1C                     	;# 
  1829  0D1D                     	;# 
  1830  0D1E                     	;# 
  1831  0D1F                     	;# 
  1832  0D8E                     	;# 
  1833  0D8F                     	;# 
  1834  0D90                     	;# 
  1835  0D91                     	;# 
  1836  0D91                     	;# 
  1837  0D92                     	;# 
  1838  0D93                     	;# 
  1839  0D93                     	;# 
  1840  0D94                     	;# 
  1841  0D95                     	;# 
  1842  0D95                     	;# 
  1843  0D96                     	;# 
  1844  0D97                     	;# 
  1845  0D97                     	;# 
  1846  0D98                     	;# 
  1847  0D99                     	;# 
  1848  0D99                     	;# 
  1849  0D9A                     	;# 
  1850  0D9B                     	;# 
  1851  0D9C                     	;# 
  1852  0D9C                     	;# 
  1853  0D9D                     	;# 
  1854  0D9D                     	;# 
  1855  0D9E                     	;# 
  1856  0D9F                     	;# 
  1857  0DA0                     	;# 
  1858  0DA1                     	;# 
  1859  0DA1                     	;# 
  1860  0DA2                     	;# 
  1861  0DA3                     	;# 
  1862  0DA3                     	;# 
  1863  0DA4                     	;# 
  1864  0DA5                     	;# 
  1865  0DA5                     	;# 
  1866  0DA6                     	;# 
  1867  0DA7                     	;# 
  1868  0DA7                     	;# 
  1869  0DA8                     	;# 
  1870  0DA9                     	;# 
  1871  0DA9                     	;# 
  1872  0DAA                     	;# 
  1873  0DAB                     	;# 
  1874  0DAC                     	;# 
  1875  0DAC                     	;# 
  1876  0DAD                     	;# 
  1877  0DAD                     	;# 
  1878  0DAE                     	;# 
  1879  0DAF                     	;# 
  1880  0DB0                     	;# 
  1881  0DB1                     	;# 
  1882  0DB1                     	;# 
  1883  0DB2                     	;# 
  1884  0DB3                     	;# 
  1885  0DB3                     	;# 
  1886  0DB4                     	;# 
  1887  0DB5                     	;# 
  1888  0DB5                     	;# 
  1889  0DB6                     	;# 
  1890  0DB7                     	;# 
  1891  0DB7                     	;# 
  1892  0DB8                     	;# 
  1893  0DB9                     	;# 
  1894  0DB9                     	;# 
  1895  0DBA                     	;# 
  1896  0DBB                     	;# 
  1897  0DBC                     	;# 
  1898  0DBC                     	;# 
  1899  0DBD                     	;# 
  1900  0DBD                     	;# 
  1901  0DBE                     	;# 
  1902  0DBF                     	;# 
  1903  0DC0                     	;# 
  1904  0DC1                     	;# 
  1905  0DC1                     	;# 
  1906  0DC2                     	;# 
  1907  0DC3                     	;# 
  1908  0DC3                     	;# 
  1909  0DC4                     	;# 
  1910  0DC5                     	;# 
  1911  0DC5                     	;# 
  1912  0DC6                     	;# 
  1913  0DC7                     	;# 
  1914  0DC7                     	;# 
  1915  0DC8                     	;# 
  1916  0DC9                     	;# 
  1917  0DC9                     	;# 
  1918  0DCA                     	;# 
  1919  0DCB                     	;# 
  1920  0DCC                     	;# 
  1921  0DCC                     	;# 
  1922  0DCD                     	;# 
  1923  0DCD                     	;# 
  1924  0DCE                     	;# 
  1925  0DCF                     	;# 
  1926  0DD0                     	;# 
  1927  0E0C                     	;# 
  1928  0E0D                     	;# 
  1929  0E0E                     	;# 
  1930  0E0F                     	;# 
  1931  0E10                     	;# 
  1932  0E11                     	;# 
  1933  0E12                     	;# 
  1934  0E13                     	;# 
  1935  0E14                     	;# 
  1936  0E15                     	;# 
  1937  0E15                     	;# 
  1938  0E15                     	;# 
  1939  0E16                     	;# 
  1940  0E16                     	;# 
  1941  0E16                     	;# 
  1942  0E17                     	;# 
  1943  0E17                     	;# 
  1944  0E17                     	;# 
  1945  0E18                     	;# 
  1946  0E18                     	;# 
  1947  0E18                     	;# 
  1948  0E19                     	;# 
  1949  0E1A                     	;# 
  1950  0E1B                     	;# 
  1951  0E1C                     	;# 
  1952  0E1D                     	;# 
  1953  0E1E                     	;# 
  1954  0E1F                     	;# 
  1955  0E20                     	;# 
  1956  0E21                     	;# 
  1957  0E22                     	;# 
  1958  0E23                     	;# 
  1959  0E24                     	;# 
  1960  0E25                     	;# 
  1961  0E26                     	;# 
  1962  0E27                     	;# 
  1963  0E28                     	;# 
  1964  0E29                     	;# 
  1965  0E2A                     	;# 
  1966  0E2B                     	;# 
  1967  0E2C                     	;# 
  1968  0E2D                     	;# 
  1969  0E2E                     	;# 
  1970  0E2F                     	;# 
  1971  0E30                     	;# 
  1972  0E31                     	;# 
  1973  0E32                     	;# 
  1974  0E33                     	;# 
  1975  0E34                     	;# 
  1976  0E35                     	;# 
  1977  0E36                     	;# 
  1978  0E37                     	;# 
  1979  0E38                     	;# 
  1980  0E39                     	;# 
  1981  0E3A                     	;# 
  1982  0E3B                     	;# 
  1983  0E3C                     	;# 
  1984  0E3D                     	;# 
  1985  0E3E                     	;# 
  1986  0E90                     	;# 
  1987  0E91                     	;# 
  1988  0E92                     	;# 
  1989  0E93                     	;# 
  1990  0E94                     	;# 
  1991  0E95                     	;# 
  1992  0E96                     	;# 
  1993  0E97                     	;# 
  1994  0E98                     	;# 
  1995  0E99                     	;# 
  1996  0E9A                     	;# 
  1997  0E9B                     	;# 
  1998  0E9C                     	;# 
  1999  0E9D                     	;# 
  2000  0E9E                     	;# 
  2001  0E9F                     	;# 
  2002  0EA0                     	;# 
  2003  0EA1                     	;# 
  2004  0EA2                     	;# 
  2005  0EA3                     	;# 
  2006  0EA4                     	;# 
  2007  0EA5                     	;# 
  2008  0EA6                     	;# 
  2009  0EA7                     	;# 
  2010  0EA8                     	;# 
  2011  0EA9                     	;# 
  2012  0EAA                     	;# 
  2013  0EAB                     	;# 
  2014  0EAC                     	;# 
  2015  0EAD                     	;# 
  2016  0EAE                     	;# 
  2017  0EAF                     	;# 
  2018  0EB0                     	;# 
  2019  0EB1                     	;# 
  2020  0EB2                     	;# 
  2021  0F0F                     	;# 
  2022  0F10                     	;# 
  2023  0F11                     	;# 
  2024  0F12                     	;# 
  2025  0F13                     	;# 
  2026  0F14                     	;# 
  2027  0F15                     	;# 
  2028  0F16                     	;# 
  2029  0F17                     	;# 
  2030  0F18                     	;# 
  2031  0F19                     	;# 
  2032  0F1A                     	;# 
  2033  0F1B                     	;# 
  2034  0F1C                     	;# 
  2035  0F1D                     	;# 
  2036  0F1E                     	;# 
  2037  0F1F                     	;# 
  2038  0F20                     	;# 
  2039  0F21                     	;# 
  2040  0F22                     	;# 
  2041  0F23                     	;# 
  2042  0F24                     	;# 
  2043  0F25                     	;# 
  2044  0F26                     	;# 
  2045  0F27                     	;# 
  2046  0F28                     	;# 
  2047  0F29                     	;# 
  2048  0F2A                     	;# 
  2049  0F2B                     	;# 
  2050  0F2C                     	;# 
  2051  0F2D                     	;# 
  2052  0F2E                     	;# 
  2053  0F2F                     	;# 
  2054  0F30                     	;# 
  2055  0F31                     	;# 
  2056  0F32                     	;# 
  2057  0F33                     	;# 
  2058  0F34                     	;# 
  2059  0F35                     	;# 
  2060  0F36                     	;# 
  2061  0F37                     	;# 
  2062  0FE4                     	;# 
  2063  0FE5                     	;# 
  2064  0FE6                     	;# 
  2065  0FE7                     	;# 
  2066  0FE8                     	;# 
  2067  0FE9                     	;# 
  2068  0FEA                     	;# 
  2069  0FEB                     	;# 
  2070  0FED                     	;# 
  2071  0FEE                     	;# 
  2072  0FEF                     	;# 
  2073  0097                     _OPTION_REGbits	set	151
  2074  008F                     _TRISD	set	143
  2075  008E                     _TRISC	set	142
  2076  008D                     _TRISB	set	141
  2077  008C                     _TRISA	set	140
  2078  0090                     _TRISE	set	144
  2079  0099                     _WDTCON	set	153
  2080  009D                     _BORCON	set	157
  2081  009A                     _OSCTUNE	set	154
  2082  009C                     _OSCSTAT	set	156
  2083  009B                     _OSCCON	set	155
  2084  04E6                     _PLLR	set	1254
  2085  010D                     _LATBbits	set	269
  2086  010E                     _LATC	set	270
  2087  010D                     _LATB	set	269
  2088  010C                     _LATA	set	268
  2089  010F                     _LATD	set	271
  2090  0110                     _LATE	set	272
  2091  018C                     _ANSELA	set	396
  2092  0190                     _ANSELE	set	400
  2093  018D                     _ANSELB	set	397
  2094  018E                     _ANSELC	set	398
  2095  018F                     _ANSELD	set	399
  2096  020E                     _WPUC	set	526
  2097  020C                     _WPUA	set	524
  2098  020D                     _WPUB	set	525
  2099  0210                     _WPUE	set	528
  2100  020F                     _WPUD	set	527
  2101  028F                     _ODCOND	set	655
  2102  028E                     _ODCONC	set	654
  2103  028D                     _ODCONB	set	653
  2104  028C                     _ODCONA	set	652
  2105  0290                     _ODCONE	set	656
  2106  0310                     _SLRCONE	set	784
  2107  030F                     _SLRCOND	set	783
  2108  030E                     _SLRCONC	set	782
  2109  030D                     _SLRCONB	set	781
  2110  030C                     _SLRCONA	set	780
  2111  038F                     _INLVLD	set	911
  2112  038E                     _INLVLC	set	910
  2113  038D                     _INLVLB	set	909
  2114  038C                     _INLVLA	set	908
  2115                           
  2116                           	psect	cinit
  2117  07FD                     start_initialization:	
  2118                           ; #config settings
  2119                           
  2120  07FD                     __initialization:
  2121  07FD                     end_of_initialization:	
  2122                           ;End of C runtime variable initialization code
  2123                           
  2124  07FD                     __end_of__initialization:
  2125  07FD  0020               	movlb	0
  2126  07FE  3187  2F9A         	ljmp	_main	;jump to C main() function
  2127                           
  2128                           	psect	cstackCOMMON
  2129  0070                     __pcstackCOMMON:
  2130  0070                     ?_PIN_MANAGER_Initialize:
  2131  0070                     ??_PIN_MANAGER_Initialize:	
  2132                           ; 1 bytes @ 0x0
  2133                           
  2134  0070                     ?_OSCILLATOR_Initialize:	
  2135                           ; 1 bytes @ 0x0
  2136                           
  2137  0070                     ??_OSCILLATOR_Initialize:	
  2138                           ; 1 bytes @ 0x0
  2139                           
  2140  0070                     ?_WDT_Initialize:	
  2141                           ; 1 bytes @ 0x0
  2142                           
  2143  0070                     ??_WDT_Initialize:	
  2144                           ; 1 bytes @ 0x0
  2145                           
  2146  0070                     ?_SYSTEM_Initialize:	
  2147                           ; 1 bytes @ 0x0
  2148                           
  2149  0070                     ??_SYSTEM_Initialize:	
  2150                           ; 1 bytes @ 0x0
  2151                           
  2152  0070                     ?_main:	
  2153                           ; 1 bytes @ 0x0
  2154                           
  2155  0070                     ??_main:	
  2156                           ; 1 bytes @ 0x0
  2157                           
  2158                           
  2159                           ; 1 bytes @ 0x0
  2160  0070                     	ds	2
  2161                           
  2162                           	psect	maintext
  2163  079A                     __pmaintext:	
  2164 ;;
  2165 ;;Main: autosize = 0, tempsize = 2, incstack = 0, save=0
  2166 ;;
  2167 ;; *************** function _main *****************
  2168 ;; Defined at:
  2169 ;;		line 49 in file "main.c"
  2170 ;; Parameters:    Size  Location     Type
  2171 ;;		None
  2172 ;; Auto vars:     Size  Location     Type
  2173 ;;		None
  2174 ;; Return value:  Size  Location     Type
  2175 ;;                  1    wreg      void 
  2176 ;; Registers used:
  2177 ;;		wreg, status,2, status,0, pclath, cstack
  2178 ;; Tracked objects:
  2179 ;;		On entry : B1F/0
  2180 ;;		On exit  : 0/0
  2181 ;;		Unchanged: 0/0
  2182 ;; Data sizes:     COMMON   BANK0   BANK1   BANK2   BANK3   BANK4   BANK5   BANK6   BANK7   BANK8   BANK9  BANK10  BANK1
      +1  BANK12  BANK13  BANK14  BANK15  BANK16  BANK17  BANK18  BANK19  BANK20  BANK21  BANK22  BANK23  BANK24  BANK25
  2183 ;;      Params:         0       0       0       0       0       0       0       0       0       0       0       0       
      +0       0       0       0       0       0       0       0       0       0       0       0       0       0       0
  2184 ;;      Locals:         0       0       0       0       0       0       0       0       0       0       0       0       
      +0       0       0       0       0       0       0       0       0       0       0       0       0       0       0
  2185 ;;      Temps:          2       0       0       0       0       0       0       0       0       0       0       0       
      +0       0       0       0       0       0       0       0       0       0       0       0       0       0       0
  2186 ;;      Totals:         2       0       0       0       0       0       0       0       0       0       0       0       
      +0       0       0       0       0       0       0       0       0       0       0       0       0       0       0
  2187 ;;Total ram usage:        2 bytes
  2188 ;; Hardware stack levels required when called: 2
  2189 ;; This function calls:
  2190 ;;		_SYSTEM_Initialize
  2191 ;; This function is called by:
  2192 ;;		Startup code after reset
  2193 ;; This function uses a non-reentrant model
  2194 ;;
  2195                           
  2196                           
  2197                           ;psect for function _main
  2198  079A                     _main:
  2199  079A                     l698:	
  2200                           ;incstack = 0
  2201                           ; Regs used in _main: [wreg+status,2+status,0+pclath+cstack]
  2202                           
  2203                           
  2204                           ;main.c: 52:     SYSTEM_Initialize();
  2205  079A  3187  2784  3187   	fcall	_SYSTEM_Initialize
  2206  079D                     l700:
  2207                           
  2208                           ;main.c: 70:     {;main.c: 72:         LATBbits.LATB0 = 0;
  2209  079D  0022               	movlb	2	; select bank2
  2210  079E  100D               	bcf	13,0	;volatile
  2211  079F                     l702:
  2212                           
  2213                           ;main.c: 73:         LATBbits.LATB1 = 1;
  2214  079F  148D               	bsf	13,1	;volatile
  2215  07A0                     l704:
  2216                           
  2217                           ;main.c: 74:         _delay((unsigned long)((1000)*(32000000/4000.0)));
  2218  07A0  3029               	movlw	41
  2219  07A1  00F1               	movwf	??_main+1
  2220  07A2  3096               	movlw	150
  2221  07A3  00F0               	movwf	??_main
  2222  07A4  307F               	movlw	127
  2223  07A5                     u27:
  2224  07A5  0B89               	decfsz	9,f
  2225  07A6  2FA5               	goto	u27
  2226  07A7  0BF0               	decfsz	??_main,f
  2227  07A8  2FA5               	goto	u27
  2228  07A9  0BF1               	decfsz	??_main+1,f
  2229  07AA  2FA5               	goto	u27
  2230  07AB  0000               	nop
  2231  07AC                     l706:
  2232                           
  2233                           ;main.c: 75:         LATBbits.LATB0 = 1;
  2234  07AC  0022               	movlb	2	; select bank2
  2235  07AD  140D               	bsf	13,0	;volatile
  2236  07AE                     l708:
  2237                           
  2238                           ;main.c: 76:         LATBbits.LATB1 = 0;
  2239  07AE  108D               	bcf	13,1	;volatile
  2240  07AF                     l710:
  2241                           
  2242                           ;main.c: 77:         _delay((unsigned long)((1000)*(32000000/4000.0)));
  2243  07AF  3029               	movlw	41
  2244  07B0  00F1               	movwf	??_main+1
  2245  07B1  3096               	movlw	150
  2246  07B2  00F0               	movwf	??_main
  2247  07B3  307F               	movlw	127
  2248  07B4                     u37:
  2249  07B4  0B89               	decfsz	9,f
  2250  07B5  2FB4               	goto	u37
  2251  07B6  0BF0               	decfsz	??_main,f
  2252  07B7  2FB4               	goto	u37
  2253  07B8  0BF1               	decfsz	??_main+1,f
  2254  07B9  2FB4               	goto	u37
  2255  07BA  0000               	nop
  2256  07BB  2F9D               	goto	l700
  2257  07BC  3180  2802         	ljmp	start
  2258  07BE                     __end_of_main:
  2259                           
  2260                           	psect	text1
  2261  0784                     __ptext1:	
  2262 ;; *************** function _SYSTEM_Initialize *****************
  2263 ;; Defined at:
  2264 ;;		line 50 in file "mcc_generated_files/mcc.c"
  2265 ;; Parameters:    Size  Location     Type
  2266 ;;		None
  2267 ;; Auto vars:     Size  Location     Type
  2268 ;;		None
  2269 ;; Return value:  Size  Location     Type
  2270 ;;                  1    wreg      void 
  2271 ;; Registers used:
  2272 ;;		wreg, status,2, status,0, pclath, cstack
  2273 ;; Tracked objects:
  2274 ;;		On entry : 0/0
  2275 ;;		On exit  : 0/0
  2276 ;;		Unchanged: 0/0
  2277 ;; Data sizes:     COMMON   BANK0   BANK1   BANK2   BANK3   BANK4   BANK5   BANK6   BANK7   BANK8   BANK9  BANK10  BANK1
      +1  BANK12  BANK13  BANK14  BANK15  BANK16  BANK17  BANK18  BANK19  BANK20  BANK21  BANK22  BANK23  BANK24  BANK25
  2278 ;;      Params:         0       0       0       0       0       0       0       0       0       0       0       0       
      +0       0       0       0       0       0       0       0       0       0       0       0       0       0       0
  2279 ;;      Locals:         0       0       0       0       0       0       0       0       0       0       0       0       
      +0       0       0       0       0       0       0       0       0       0       0       0       0       0       0
  2280 ;;      Temps:          0       0       0       0       0       0       0       0       0       0       0       0       
      +0       0       0       0       0       0       0       0       0       0       0       0       0       0       0
  2281 ;;      Totals:         0       0       0       0       0       0       0       0       0       0       0       0       
      +0       0       0       0       0       0       0       0       0       0       0       0       0       0       0
  2282 ;;Total ram usage:        0 bytes
  2283 ;; Hardware stack levels used: 1
  2284 ;; Hardware stack levels required when called: 1
  2285 ;; This function calls:
  2286 ;;		_OSCILLATOR_Initialize
  2287 ;;		_PIN_MANAGER_Initialize
  2288 ;;		_WDT_Initialize
  2289 ;; This function is called by:
  2290 ;;		_main
  2291 ;; This function uses a non-reentrant model
  2292 ;;
  2293                           
  2294                           
  2295                           ;psect for function _SYSTEM_Initialize
  2296  0784                     _SYSTEM_Initialize:
  2297  0784                     l696:	
  2298                           ;incstack = 0
  2299                           ; Regs used in _SYSTEM_Initialize: [wreg+status,2+status,0+pclath+cstack]
  2300                           
  2301                           
  2302                           ;mcc_generated_files/mcc.c: 53:     PIN_MANAGER_Initialize();
  2303  0784  3187  27BE  3187   	fcall	_PIN_MANAGER_Initialize
  2304                           
  2305                           ;mcc_generated_files/mcc.c: 54:     OSCILLATOR_Initialize();
  2306  0787  3187  278E  3187   	fcall	_OSCILLATOR_Initialize
  2307                           
  2308                           ;mcc_generated_files/mcc.c: 55:     WDT_Initialize();
  2309  078A  3187  2780  3187   	fcall	_WDT_Initialize
  2310  078D                     l21:
  2311  078D  0008               	return
  2312  078E                     __end_of_SYSTEM_Initialize:
  2313                           
  2314                           	psect	text2
  2315  0780                     __ptext2:	
  2316 ;; *************** function _WDT_Initialize *****************
  2317 ;; Defined at:
  2318 ;;		line 74 in file "mcc_generated_files/mcc.c"
  2319 ;; Parameters:    Size  Location     Type
  2320 ;;		None
  2321 ;; Auto vars:     Size  Location     Type
  2322 ;;		None
  2323 ;; Return value:  Size  Location     Type
  2324 ;;                  1    wreg      void 
  2325 ;; Registers used:
  2326 ;;		wreg
  2327 ;; Tracked objects:
  2328 ;;		On entry : 0/0
  2329 ;;		On exit  : 0/0
  2330 ;;		Unchanged: 0/0
  2331 ;; Data sizes:     COMMON   BANK0   BANK1   BANK2   BANK3   BANK4   BANK5   BANK6   BANK7   BANK8   BANK9  BANK10  BANK1
      +1  BANK12  BANK13  BANK14  BANK15  BANK16  BANK17  BANK18  BANK19  BANK20  BANK21  BANK22  BANK23  BANK24  BANK25
  2332 ;;      Params:         0       0       0       0       0       0       0       0       0       0       0       0       
      +0       0       0       0       0       0       0       0       0       0       0       0       0       0       0
  2333 ;;      Locals:         0       0       0       0       0       0       0       0       0       0       0       0       
      +0       0       0       0       0       0       0       0       0       0       0       0       0       0       0
  2334 ;;      Temps:          0       0       0       0       0       0       0       0       0       0       0       0       
      +0       0       0       0       0       0       0       0       0       0       0       0       0       0       0
  2335 ;;      Totals:         0       0       0       0       0       0       0       0       0       0       0       0       
      +0       0       0       0       0       0       0       0       0       0       0       0       0       0       0
  2336 ;;Total ram usage:        0 bytes
  2337 ;; Hardware stack levels used: 1
  2338 ;; This function calls:
  2339 ;;		Nothing
  2340 ;; This function is called by:
  2341 ;;		_SYSTEM_Initialize
  2342 ;; This function uses a non-reentrant model
  2343 ;;
  2344                           
  2345                           
  2346                           ;psect for function _WDT_Initialize
  2347  0780                     _WDT_Initialize:
  2348  0780                     l694:	
  2349                           ;incstack = 0
  2350                           ; Regs used in _WDT_Initialize: [wreg]
  2351                           
  2352                           
  2353                           ;mcc_generated_files/mcc.c: 77:     WDTCON = 0x16;
  2354  0780  3016               	movlw	22
  2355  0781  0021               	movlb	1	; select bank1
  2356  0782  0099               	movwf	25	;volatile
  2357  0783                     l30:
  2358  0783  0008               	return
  2359  0784                     __end_of_WDT_Initialize:
  2360                           
  2361                           	psect	text3
  2362  07BE                     __ptext3:	
  2363 ;; *************** function _PIN_MANAGER_Initialize *****************
  2364 ;; Defined at:
  2365 ;;		line 55 in file "mcc_generated_files/pin_manager.c"
  2366 ;; Parameters:    Size  Location     Type
  2367 ;;		None
  2368 ;; Auto vars:     Size  Location     Type
  2369 ;;		None
  2370 ;; Return value:  Size  Location     Type
  2371 ;;                  1    wreg      void 
  2372 ;; Registers used:
  2373 ;;		wreg, status,2
  2374 ;; Tracked objects:
  2375 ;;		On entry : 0/0
  2376 ;;		On exit  : 0/0
  2377 ;;		Unchanged: 0/0
  2378 ;; Data sizes:     COMMON   BANK0   BANK1   BANK2   BANK3   BANK4   BANK5   BANK6   BANK7   BANK8   BANK9  BANK10  BANK1
      +1  BANK12  BANK13  BANK14  BANK15  BANK16  BANK17  BANK18  BANK19  BANK20  BANK21  BANK22  BANK23  BANK24  BANK25
  2379 ;;      Params:         0       0       0       0       0       0       0       0       0       0       0       0       
      +0       0       0       0       0       0       0       0       0       0       0       0       0       0       0
  2380 ;;      Locals:         0       0       0       0       0       0       0       0       0       0       0       0       
      +0       0       0       0       0       0       0       0       0       0       0       0       0       0       0
  2381 ;;      Temps:          0       0       0       0       0       0       0       0       0       0       0       0       
      +0       0       0       0       0       0       0       0       0       0       0       0       0       0       0
  2382 ;;      Totals:         0       0       0       0       0       0       0       0       0       0       0       0       
      +0       0       0       0       0       0       0       0       0       0       0       0       0       0       0
  2383 ;;Total ram usage:        0 bytes
  2384 ;; Hardware stack levels used: 1
  2385 ;; This function calls:
  2386 ;;		Nothing
  2387 ;; This function is called by:
  2388 ;;		_SYSTEM_Initialize
  2389 ;; This function uses a non-reentrant model
  2390 ;;
  2391                           
  2392                           
  2393                           ;psect for function _PIN_MANAGER_Initialize
  2394  07BE                     _PIN_MANAGER_Initialize:
  2395  07BE                     l646:	
  2396                           ;incstack = 0
  2397                           ; Regs used in _PIN_MANAGER_Initialize: [wreg+status,2]
  2398                           
  2399                           
  2400                           ;mcc_generated_files/pin_manager.c: 60:     LATE = 0x00;
  2401  07BE  0022               	movlb	2	; select bank2
  2402  07BF  0190               	clrf	16	;volatile
  2403                           
  2404                           ;mcc_generated_files/pin_manager.c: 61:     LATD = 0x00;
  2405  07C0  018F               	clrf	15	;volatile
  2406                           
  2407                           ;mcc_generated_files/pin_manager.c: 62:     LATA = 0x00;
  2408  07C1  018C               	clrf	12	;volatile
  2409                           
  2410                           ;mcc_generated_files/pin_manager.c: 63:     LATB = 0x00;
  2411  07C2  018D               	clrf	13	;volatile
  2412                           
  2413                           ;mcc_generated_files/pin_manager.c: 64:     LATC = 0x00;
  2414  07C3  018E               	clrf	14	;volatile
  2415  07C4                     l648:
  2416                           
  2417                           ;mcc_generated_files/pin_manager.c: 69:     TRISE = 0x07;
  2418  07C4  3007               	movlw	7
  2419  07C5  0021               	movlb	1	; select bank1
  2420  07C6  0090               	movwf	16	;volatile
  2421  07C7                     l650:
  2422                           
  2423                           ;mcc_generated_files/pin_manager.c: 70:     TRISA = 0xFF;
  2424  07C7  30FF               	movlw	255
  2425  07C8  008C               	movwf	12	;volatile
  2426  07C9                     l652:
  2427                           
  2428                           ;mcc_generated_files/pin_manager.c: 71:     TRISB = 0xFC;
  2429  07C9  30FC               	movlw	252
  2430  07CA  008D               	movwf	13	;volatile
  2431  07CB                     l654:
  2432                           
  2433                           ;mcc_generated_files/pin_manager.c: 72:     TRISC = 0xFF;
  2434  07CB  30FF               	movlw	255
  2435  07CC  008E               	movwf	14	;volatile
  2436  07CD                     l656:
  2437                           
  2438                           ;mcc_generated_files/pin_manager.c: 73:     TRISD = 0xFF;
  2439  07CD  30FF               	movlw	255
  2440  07CE  008F               	movwf	15	;volatile
  2441  07CF                     l658:
  2442                           
  2443                           ;mcc_generated_files/pin_manager.c: 78:     ANSELD = 0xFF;
  2444  07CF  30FF               	movlw	255
  2445  07D0  0023               	movlb	3	; select bank3
  2446  07D1  008F               	movwf	15	;volatile
  2447  07D2                     l660:
  2448                           
  2449                           ;mcc_generated_files/pin_manager.c: 79:     ANSELC = 0xFC;
  2450  07D2  30FC               	movlw	252
  2451  07D3  008E               	movwf	14	;volatile
  2452  07D4                     l662:
  2453                           
  2454                           ;mcc_generated_files/pin_manager.c: 80:     ANSELB = 0x3C;
  2455  07D4  303C               	movlw	60
  2456  07D5  008D               	movwf	13	;volatile
  2457  07D6                     l664:
  2458                           
  2459                           ;mcc_generated_files/pin_manager.c: 81:     ANSELE = 0x07;
  2460  07D6  3007               	movlw	7
  2461  07D7  0090               	movwf	16	;volatile
  2462  07D8                     l666:
  2463                           
  2464                           ;mcc_generated_files/pin_manager.c: 82:     ANSELA = 0x3F;
  2465  07D8  303F               	movlw	63
  2466  07D9  008C               	movwf	12	;volatile
  2467                           
  2468                           ;mcc_generated_files/pin_manager.c: 87:     WPUD = 0x00;
  2469  07DA  0024               	movlb	4	; select bank4
  2470  07DB  018F               	clrf	15	;volatile
  2471                           
  2472                           ;mcc_generated_files/pin_manager.c: 88:     WPUE = 0x00;
  2473  07DC  0190               	clrf	16	;volatile
  2474                           
  2475                           ;mcc_generated_files/pin_manager.c: 89:     WPUB = 0x00;
  2476  07DD  018D               	clrf	13	;volatile
  2477                           
  2478                           ;mcc_generated_files/pin_manager.c: 90:     WPUA = 0x00;
  2479  07DE  018C               	clrf	12	;volatile
  2480                           
  2481                           ;mcc_generated_files/pin_manager.c: 91:     WPUC = 0x00;
  2482  07DF  018E               	clrf	14	;volatile
  2483  07E0                     l668:
  2484                           
  2485                           ;mcc_generated_files/pin_manager.c: 92:     OPTION_REGbits.nWPUEN = 1;
  2486  07E0  0021               	movlb	1	; select bank1
  2487  07E1  1797               	bsf	23,7	;volatile
  2488                           
  2489                           ;mcc_generated_files/pin_manager.c: 97:     ODCONE = 0x00;
  2490  07E2  0025               	movlb	5	; select bank5
  2491  07E3  0190               	clrf	16	;volatile
  2492                           
  2493                           ;mcc_generated_files/pin_manager.c: 98:     ODCONA = 0x00;
  2494  07E4  018C               	clrf	12	;volatile
  2495                           
  2496                           ;mcc_generated_files/pin_manager.c: 99:     ODCONB = 0x00;
  2497  07E5  018D               	clrf	13	;volatile
  2498                           
  2499                           ;mcc_generated_files/pin_manager.c: 100:     ODCONC = 0x00;
  2500  07E6  018E               	clrf	14	;volatile
  2501                           
  2502                           ;mcc_generated_files/pin_manager.c: 101:     ODCOND = 0x00;
  2503  07E7  018F               	clrf	15	;volatile
  2504  07E8                     l670:
  2505                           
  2506                           ;mcc_generated_files/pin_manager.c: 106:     SLRCONA = 0xFF;
  2507  07E8  30FF               	movlw	255
  2508  07E9  0026               	movlb	6	; select bank6
  2509  07EA  008C               	movwf	12	;volatile
  2510  07EB                     l672:
  2511                           
  2512                           ;mcc_generated_files/pin_manager.c: 107:     SLRCONB = 0xFF;
  2513  07EB  30FF               	movlw	255
  2514  07EC  008D               	movwf	13	;volatile
  2515  07ED                     l674:
  2516                           
  2517                           ;mcc_generated_files/pin_manager.c: 108:     SLRCONC = 0xFF;
  2518  07ED  30FF               	movlw	255
  2519  07EE  008E               	movwf	14	;volatile
  2520  07EF                     l676:
  2521                           
  2522                           ;mcc_generated_files/pin_manager.c: 109:     SLRCOND = 0xFF;
  2523  07EF  30FF               	movlw	255
  2524  07F0  008F               	movwf	15	;volatile
  2525  07F1                     l678:
  2526                           
  2527                           ;mcc_generated_files/pin_manager.c: 110:     SLRCONE = 0x07;
  2528  07F1  3007               	movlw	7
  2529  07F2  0090               	movwf	16	;volatile
  2530  07F3                     l680:
  2531                           
  2532                           ;mcc_generated_files/pin_manager.c: 115:     INLVLA = 0x3F;
  2533  07F3  303F               	movlw	63
  2534  07F4  0027               	movlb	7	; select bank7
  2535  07F5  008C               	movwf	12	;volatile
  2536  07F6                     l682:
  2537                           
  2538                           ;mcc_generated_files/pin_manager.c: 116:     INLVLB = 0xF0;
  2539  07F6  30F0               	movlw	240
  2540  07F7  008D               	movwf	13	;volatile
  2541  07F8                     l684:
  2542                           
  2543                           ;mcc_generated_files/pin_manager.c: 117:     INLVLC = 0xFF;
  2544  07F8  30FF               	movlw	255
  2545  07F9  008E               	movwf	14	;volatile
  2546  07FA                     l686:
  2547                           
  2548                           ;mcc_generated_files/pin_manager.c: 118:     INLVLD = 0xFF;
  2549  07FA  30FF               	movlw	255
  2550  07FB  008F               	movwf	15	;volatile
  2551  07FC                     l103:
  2552  07FC  0008               	return
  2553  07FD                     __end_of_PIN_MANAGER_Initialize:
  2554                           
  2555                           	psect	text4
  2556  078E                     __ptext4:	
  2557 ;; *************** function _OSCILLATOR_Initialize *****************
  2558 ;; Defined at:
  2559 ;;		line 58 in file "mcc_generated_files/mcc.c"
  2560 ;; Parameters:    Size  Location     Type
  2561 ;;		None
  2562 ;; Auto vars:     Size  Location     Type
  2563 ;;		None
  2564 ;; Return value:  Size  Location     Type
  2565 ;;                  1    wreg      void 
  2566 ;; Registers used:
  2567 ;;		wreg, status,2
  2568 ;; Tracked objects:
  2569 ;;		On entry : 0/0
  2570 ;;		On exit  : 0/0
  2571 ;;		Unchanged: 0/0
  2572 ;; Data sizes:     COMMON   BANK0   BANK1   BANK2   BANK3   BANK4   BANK5   BANK6   BANK7   BANK8   BANK9  BANK10  BANK1
      +1  BANK12  BANK13  BANK14  BANK15  BANK16  BANK17  BANK18  BANK19  BANK20  BANK21  BANK22  BANK23  BANK24  BANK25
  2573 ;;      Params:         0       0       0       0       0       0       0       0       0       0       0       0       
      +0       0       0       0       0       0       0       0       0       0       0       0       0       0       0
  2574 ;;      Locals:         0       0       0       0       0       0       0       0       0       0       0       0       
      +0       0       0       0       0       0       0       0       0       0       0       0       0       0       0
  2575 ;;      Temps:          0       0       0       0       0       0       0       0       0       0       0       0       
      +0       0       0       0       0       0       0       0       0       0       0       0       0       0       0
  2576 ;;      Totals:         0       0       0       0       0       0       0       0       0       0       0       0       
      +0       0       0       0       0       0       0       0       0       0       0       0       0       0       0
  2577 ;;Total ram usage:        0 bytes
  2578 ;; Hardware stack levels used: 1
  2579 ;; This function calls:
  2580 ;;		Nothing
  2581 ;; This function is called by:
  2582 ;;		_SYSTEM_Initialize
  2583 ;; This function uses a non-reentrant model
  2584 ;;
  2585                           
  2586                           
  2587                           ;psect for function _OSCILLATOR_Initialize
  2588  078E                     _OSCILLATOR_Initialize:
  2589  078E                     l688:	
  2590                           ;incstack = 0
  2591                           ; Regs used in _OSCILLATOR_Initialize: [wreg+status,2]
  2592                           
  2593                           
  2594                           ;mcc_generated_files/mcc.c: 61:     OSCCON = 0x70;
  2595  078E  3070               	movlw	112
  2596  078F  0021               	movlb	1	; select bank1
  2597  0790  009B               	movwf	27	;volatile
  2598                           
  2599                           ;mcc_generated_files/mcc.c: 63:     OSCSTAT = 0x80;
  2600  0791  3080               	movlw	128
  2601  0792  009C               	movwf	28	;volatile
  2602  0793                     l690:
  2603                           
  2604                           ;mcc_generated_files/mcc.c: 65:     OSCTUNE = 0x00;
  2605  0793  019A               	clrf	26	;volatile
  2606  0794                     l692:
  2607                           
  2608                           ;mcc_generated_files/mcc.c: 67:     BORCON = 0x00;
  2609  0794  019D               	clrf	29	;volatile
  2610  0795                     l24:	
  2611                           ;mcc_generated_files/mcc.c: 70:     {;mcc_generated_files/mcc.c: 71:     }
  2612                           
  2613                           
  2614                           ;mcc_generated_files/mcc.c: 69:     while(PLLR == 0)
  2615  0795  1F1C               	btfss	28,6	;volatile
  2616  0796  2F98               	goto	u11
  2617  0797  2F99               	goto	u10
  2618  0798                     u11:
  2619  0798  2F95               	goto	l24
  2620  0799                     u10:
  2621  0799                     l27:
  2622  0799  0008               	return
  2623  079A                     __end_of_OSCILLATOR_Initialize:
  2624  007E                     btemp	set	126	;btemp
  2625  007E                     wtemp0	set	126
  2626                           
  2627                           	psect	config
  2628                           
  2629                           ;Config register CONFIG1 @ 0x8007
  2630                           ;	Oscillator Selection Bits
  2631                           ;	FOSC = INTOSC, INTOSC oscillator: I/O function on CLKIN pin
  2632                           ;	Watchdog Timer Enable
  2633                           ;	WDTE = OFF, WDT disabled
  2634                           ;	Power-up Timer Enable
  2635                           ;	PWRTE = OFF, PWRT disabled
  2636                           ;	MCLR Pin Function Select
  2637                           ;	MCLRE = ON, MCLR/VPP pin function is MCLR
  2638                           ;	Flash Program Memory Code Protection
  2639                           ;	CP = OFF, Program memory code protection is disabled
  2640                           ;	Brown-out Reset Enable
  2641                           ;	BOREN = ON, Brown-out Reset enabled
  2642                           ;	Clock Out Enable
  2643                           ;	CLKOUTEN = OFF, CLKOUT function is disabled. I/O or oscillator function on the CLKOUT 
      +                          pin
  2644                           ;	Internal/External Switchover Mode
  2645                           ;	IESO = ON, Internal/External Switchover Mode is enabled
  2646                           ;	Fail-Safe Clock Monitor Enable
  2647                           ;	FCMEN = ON, Fail-Safe Clock Monitor is enabled
  2648  8007                     	org	32775
  2649  8007  3FE4               	dw	16356
  2650                           
  2651                           ;Config register CONFIG2 @ 0x8008
  2652                           ;	Flash Memory Self-Write Protection
  2653                           ;	WRT = OFF, Write protection off
  2654                           ;	Peripheral Pin Select one-way control
  2655                           ;	PPS1WAY = ON, The PPSLOCK bit cannot be cleared once it is set by software
  2656                           ;	Zero-cross detect disable
  2657                           ;	ZCD = OFF, Zero-cross detect circuit is disabled at POR
  2658                           ;	Phase Lock Loop enable
  2659                           ;	PLLEN = ON, 4x PLL is always enabled
  2660                           ;	Stack Overflow/Underflow Reset Enable
  2661                           ;	STVREN = ON, Stack Overflow or Underflow will cause a Reset
  2662                           ;	Brown-out Reset Voltage Selection
  2663                           ;	BORV = LO, Brown-out Reset Voltage (Vbor), low trip point selected.
  2664                           ;	Low-Power Brown Out Reset
  2665                           ;	LPBOR = OFF, Low-Power BOR is disabled
  2666                           ;	Low-Voltage Programming Enable
  2667                           ;	LVP = ON, Low-voltage programming enabled
  2668  8008                     	org	32776
  2669  8008  3FFF               	dw	16383

Data Sizes:
    Strings     0
    Constant    0
    Data        0
    BSS         0
    Persistent  32
    Stack       0

Auto Spaces:
    Space          Size  Autos    Used
    COMMON           14      2       2
    BANK0            80      0       0
    BANK1            80      0       0
    BANK2            80      0       0
    BANK3            80      0       0
    BANK4            80      0       0
    BANK5            80      0       0
    BANK6            80      0       0
    BANK7            80      0       0
    BANK8            80      0       0
    BANK9            80      0       0
    BANK10           80      0       0
    BANK11           80      0       0
    BANK12           80      0       0
    BANK13           80      0       0
    BANK14           80      0       0
    BANK15           80      0       0
    BANK16           80      0       0
    BANK17           80      0       0
    BANK18           80      0       0
    BANK19           80      0       0
    BANK20           80      0       0
    BANK21           80      0       0
    BANK22           80      0       0
    BANK23           80      0       0
    BANK24           80      0       0
    BANK25           32      0       0

Pointer List with Targets:

    None.

Critical Paths under _main in COMMON

    None.

Critical Paths under _main in BANK0

    None.

Critical Paths under _main in BANK1

    None.

Critical Paths under _main in BANK2

    None.

Critical Paths under _main in BANK3

    None.

Critical Paths under _main in BANK4

    None.

Critical Paths under _main in BANK5

    None.

Critical Paths under _main in BANK6

    None.

Critical Paths under _main in BANK7

    None.

Critical Paths under _main in BANK8

    None.

Critical Paths under _main in BANK9

    None.

Critical Paths under _main in BANK10

    None.

Critical Paths under _main in BANK11

    None.

Critical Paths under _main in BANK12

    None.

Critical Paths under _main in BANK13

    None.

Critical Paths under _main in BANK14

    None.

Critical Paths under _main in BANK15

    None.

Critical Paths under _main in BANK16

    None.

Critical Paths under _main in BANK17

    None.

Critical Paths under _main in BANK18

    None.

Critical Paths under _main in BANK19

    None.

Critical Paths under _main in BANK20

    None.

Critical Paths under _main in BANK21

    None.

Critical Paths under _main in BANK22

    None.

Critical Paths under _main in BANK23

    None.

Critical Paths under _main in BANK24

    None.

Critical Paths under _main in BANK25

    None.

Call Graph Tables:

 ---------------------------------------------------------------------------------
 (Depth) Function   	        Calls       Base Space   Used Autos Params    Refs
 ---------------------------------------------------------------------------------
 (0) _main                                                 2     2      0       0
                                              0 COMMON     2     2      0
                  _SYSTEM_Initialize
 ---------------------------------------------------------------------------------
 (1) _SYSTEM_Initialize                                    0     0      0       0
              _OSCILLATOR_Initialize
             _PIN_MANAGER_Initialize
                     _WDT_Initialize
 ---------------------------------------------------------------------------------
 (2) _WDT_Initialize                                       0     0      0       0
 ---------------------------------------------------------------------------------
 (2) _PIN_MANAGER_Initialize                               0     0      0       0
 ---------------------------------------------------------------------------------
 (2) _OSCILLATOR_Initialize                                0     0      0       0
 ---------------------------------------------------------------------------------
 Estimated maximum stack depth 2
 ---------------------------------------------------------------------------------

 Call Graph Graphs:

 _main (ROOT)
   _SYSTEM_Initialize
     _OSCILLATOR_Initialize
     _PIN_MANAGER_Initialize
     _WDT_Initialize

 Address spaces:
Name               Size   Autos  Total    Cost      Usage
BIGRAM             7F0      0       0       0        0.0%
NULL                 0      0       0       0        0.0%
CODE                 0      0       0       0        0.0%
BITCOMMON            E      0       0       1        0.0%
BITSFR0              0      0       0       1        0.0%
SFR0                 0      0       0       1        0.0%
COMMON               E      2       2       2       14.3%
BITSFR1              0      0       0       2        0.0%
SFR1                 0      0       0       2        0.0%
BITSFR2              0      0       0       3        0.0%
SFR2                 0      0       0       3        0.0%
STACK                0      0       0       3        0.0%
BITBANK0            50      0       0       4        0.0%
BITSFR3              0      0       0       4        0.0%
SFR3                 0      0       0       4        0.0%
BANK0               50      0       0       5        0.0%
BITSFR4              0      0       0       5        0.0%
SFR4                 0      0       0       5        0.0%
BITBANK1            50      0       0       6        0.0%
BITSFR5              0      0       0       6        0.0%
SFR5                 0      0       0       6        0.0%
BANK1               50      0       0       7        0.0%
BITSFR6              0      0       0       7        0.0%
SFR6                 0      0       0       7        0.0%
BITBANK2            50      0       0       8        0.0%
BITSFR7              0      0       0       8        0.0%
SFR7                 0      0       0       8        0.0%
BANK2               50      0       0       9        0.0%
BITSFR8              0      0       0       9        0.0%
SFR8                 0      0       0       9        0.0%
BITBANK3            50      0       0      10        0.0%
BITSFR9              0      0       0      10        0.0%
SFR9                 0      0       0      10        0.0%
BANK3               50      0       0      11        0.0%
BITSFR10             0      0       0      11        0.0%
SFR10                0      0       0      11        0.0%
BITBANK4            50      0       0      12        0.0%
BITSFR11             0      0       0      12        0.0%
SFR11                0      0       0      12        0.0%
BANK4               50      0       0      13        0.0%
BITSFR12             0      0       0      13        0.0%
SFR12                0      0       0      13        0.0%
BITSFR13             0      0       0      14        0.0%
SFR13                0      0       0      14        0.0%
ABS                  0      0       0      14        0.0%
BITBANK5            50      0       0      15        0.0%
BITSFR14             0      0       0      15        0.0%
SFR14                0      0       0      15        0.0%
BANK5               50      0       0      16        0.0%
BITSFR15             0      0       0      16        0.0%
SFR15                0      0       0      16        0.0%
BITBANK6            50      0       0      17        0.0%
BITSFR16             0      0       0      17        0.0%
SFR16                0      0       0      17        0.0%
BANK6               50      0       0      18        0.0%
BITSFR17             0      0       0      18        0.0%
SFR17                0      0       0      18        0.0%
BITBANK7            50      0       0      19        0.0%
BITSFR18             0      0       0      19        0.0%
SFR18                0      0       0      19        0.0%
BANK7               50      0       0      20        0.0%
BITSFR19             0      0       0      20        0.0%
SFR19                0      0       0      20        0.0%
BITBANK8            50      0       0      21        0.0%
BITSFR20             0      0       0      21        0.0%
SFR20                0      0       0      21        0.0%
BANK8               50      0       0      22        0.0%
BITSFR21             0      0       0      22        0.0%
SFR21                0      0       0      22        0.0%
BITBANK9            50      0       0      23        0.0%
BITSFR22             0      0       0      23        0.0%
SFR22                0      0       0      23        0.0%
BANK9               50      0       0      24        0.0%
BITSFR23             0      0       0      24        0.0%
SFR23                0      0       0      24        0.0%
BITBANK10           50      0       0      25        0.0%
BITSFR24             0      0       0      25        0.0%
SFR24                0      0       0      25        0.0%
BANK10              50      0       0      26        0.0%
BITSFR25             0      0       0      26        0.0%
SFR25                0      0       0      26        0.0%
BITBANK11           50      0       0      27        0.0%
BITSFR26             0      0       0      27        0.0%
SFR26                0      0       0      27        0.0%
BITSFR27             0      0       0      28        0.0%
SFR27                0      0       0      28        0.0%
DATA                 0      0       0      28        0.0%
BANK11              50      0       0      29        0.0%
BITSFR28             0      0       0      29        0.0%
SFR28                0      0       0      29        0.0%
BITBANK12           50      0       0      30        0.0%
BITSFR29             0      0       0      30        0.0%
SFR29                0      0       0      30        0.0%
BANK12              50      0       0      31        0.0%
BITSFR30             0      0       0      31        0.0%
SFR30                0      0       0      31        0.0%
BITBANK13           50      0       0      32        0.0%
BITSFR31             0      0       0      32        0.0%
SFR31                0      0       0      32        0.0%
BANK13              50      0       0      33        0.0%
BITBANK14           50      0       0      34        0.0%
BANK14              50      0       0      35        0.0%
BITBANK15           50      0       0      36        0.0%
BANK15              50      0       0      37        0.0%
BITBANK16           50      0       0      38        0.0%
BANK16              50      0       0      39        0.0%
BITBANK17           50      0       0      40        0.0%
BANK17              50      0       0      41        0.0%
BITBANK18           50      0       0      42        0.0%
BANK18              50      0       0      43        0.0%
BITBANK19           50      0       0      44        0.0%
BANK19              50      0       0      45        0.0%
BITBANK20           50      0       0      46        0.0%
BANK20              50      0       0      47        0.0%
BITBANK21           50      0       0      48        0.0%
BANK21              50      0       0      49        0.0%
BITBANK22           50      0       0      50        0.0%
BANK22              50      0       0      51        0.0%
BITBANK23           50      0       0      52        0.0%
BANK23              50      0       0      53        0.0%
BITBANK24           50      0       0      54        0.0%
BANK24              50      0       0      55        0.0%
BITBANK25           20      0       0      56        0.0%
BANK25              20      0       0      57        0.0%


Microchip Technology PIC Macro Assembler V2.32 build 20210201212658 
Symbol Table                                                                                   Fri Aug 27 00:15:56 2021

                             l21 078D                               l30 0783                               l24 0795  
                             l27 0799                               u10 0799                               u11 0798  
                             u27 07A5                               u37 07B4                              l103 07FC  
                            l700 079D                              l710 07AF                              l702 079F  
                            l704 07A0                              l650 07C7                              l706 07AC  
                            l660 07D2                              l652 07C9                              l708 07AE  
                            l670 07E8                              l662 07D4                              l654 07CB  
                            l646 07BE                              l680 07F3                              l672 07EB  
                            l664 07D6                              l656 07CD                              l648 07C4  
                            l690 0793                              l682 07F6                              l674 07ED  
                            l666 07D8                              l658 07CF                              l692 0794  
                            l684 07F8                              l676 07EF                              l668 07E0  
                            l686 07FA                              l678 07F1                              l694 0780  
                            l688 078E                              l696 0784                              l698 079A  
                            wreg 0009                             _LATA 010C                             _LATB 010D  
                           _LATC 010E                             _LATD 010F                             _LATE 0110  
                           _PLLR 04E6                             _WPUA 020C                             _WPUB 020D  
                           _WPUC 020E                             _WPUD 020F                             _WPUE 0210  
                           _main 079A                             btemp 007E                             start 0002  
 __size_of_OSCILLATOR_Initialize 000C    __end_of_OSCILLATOR_Initialize 079A                            ?_main 0070  
                          _TRISA 008C                            _TRISB 008D                            _TRISC 008E  
                          _TRISD 008F                            _TRISE 0090                   _WDT_Initialize 0780  
                          wtemp0 007E                  __initialization 07FD                     __end_of_main 07BE  
                         ??_main 0070           __end_of_WDT_Initialize 0784                           _ANSELA 018C  
                         _ANSELB 018D                           _ANSELC 018E                           _ANSELD 018F  
                         _ANSELE 0190                           _BORCON 009D                           _ODCONA 028C  
                         _ODCONB 028D                           _ODCONC 028E                           _ODCOND 028F  
                         _ODCONE 0290                           _INLVLA 038C                           _INLVLB 038D  
                         _INLVLC 038E                           _INLVLD 038F                           _OSCCON 009B  
                         _WDTCON 0099                  ?_WDT_Initialize 0070                _SYSTEM_Initialize 0784  
        __end_of__initialization 07FD               ?_SYSTEM_Initialize 0070                   __pcstackCOMMON 0070  
            ??_SYSTEM_Initialize 0070                   _OPTION_REGbits 0097        __end_of_SYSTEM_Initialize 078E  
                     __pmaintext 079A                          _OSCSTAT 009C                          _OSCTUNE 009A  
                        _SLRCONA 030C                          _SLRCONB 030D                          _SLRCONC 030E  
                        _SLRCOND 030F                          _SLRCONE 0310                          __ptext1 0784  
                        __ptext2 0780                          __ptext3 07BE                          __ptext4 078E  
          _OSCILLATOR_Initialize 078E         ??_PIN_MANAGER_Initialize 0070       __size_of_SYSTEM_Initialize 000A  
           end_of_initialization 07FD                 ??_WDT_Initialize 0070           ?_OSCILLATOR_Initialize 0070  
            start_initialization 07FD  __size_of_PIN_MANAGER_Initialize 003F                        ___latbits 0003  
         _PIN_MANAGER_Initialize 07BE                         _LATBbits 010D          ??_OSCILLATOR_Initialize 0070  
                  __size_of_main 0024          __size_of_WDT_Initialize 0004          ?_PIN_MANAGER_Initialize 0070  
 __end_of_PIN_MANAGER_Initialize 07FD  
